libathenaeum.so:_Z24qInitResources_athenaeumv
libathenaeum.so:_Z27qCleanupResources_athenaeumv
libcinema6.so:_ZN7CINEMA611GroupAspect11qt_metacallEN11QMetaObject4CallEiPPv
libcinema6.so:_ZN7CINEMA611GroupAspect11qt_metacastEPKc
libcinema6.so:_ZN7CINEMA611GroupAspect5paintEP8QPainterRK5QRectS5_PNS_9ComponentE
libcinema6.so:_ZN7CINEMA611GroupAspectC1ERK7QString
libcinema6.so:_ZN7CINEMA611GroupAspectC2ERK7QString
libcinema6.so:_ZN7CINEMA611GroupAspectD0Ev
libcinema6.so:_ZN7CINEMA611GroupAspectD1Ev
libcinema6.so:_ZN7CINEMA611GroupAspectD2Ev
libcinema6.so:_ZN7CINEMA611RenderEventC1EP8QPainterRK5QRect
libcinema6.so:_ZN7CINEMA611RenderEventC2EP8QPainterRK5QRect
libcinema6.so:_ZN7CINEMA611RenderEventD0Ev
libcinema6.so:_ZN7CINEMA611RenderEventD1Ev
libcinema6.so:_ZN7CINEMA611RenderEventD2Ev
libcinema6.so:_ZN7CINEMA611TitleAspect11qt_metacallEN11QMetaObject4CallEiPPv
libcinema6.so:_ZN7CINEMA611TitleAspect11qt_metacastEPKc
libcinema6.so:_ZN7CINEMA611TitleAspect15mousePressEventEPNS_9ComponentEP11QMouseEvent
libcinema6.so:_ZN7CINEMA611TitleAspect5paintEP8QPainterRK5QRectS5_PNS_9ComponentE
libcinema6.so:_ZN7CINEMA611TitleAspectC1ERK7QString
libcinema6.so:_ZN7CINEMA611TitleAspectC2ERK7QString
libcinema6.so:_ZN7CINEMA611TitleAspectD0Ev
libcinema6.so:_ZN7CINEMA611TitleAspectD1Ev
libcinema6.so:_ZN7CINEMA611TitleAspectD2Ev
libcinema6.so:_ZN7CINEMA611isComponentEPKNS_17AbstractComponentE
libcinema6.so:_ZN7CINEMA612KeyComponent11qt_metacallEN11QMetaObject4CallEiPPv
libcinema6.so:_ZN7CINEMA612KeyComponent11qt_metacastEPKc
libcinema6.so:_ZN7CINEMA612KeyComponent5paintEP8QPainterRK5QRect
libcinema6.so:_ZN7CINEMA612KeyComponentC1Ev
libcinema6.so:_ZN7CINEMA612KeyComponentC2Ev
libcinema6.so:_ZN7CINEMA612KeyComponentD0Ev
libcinema6.so:_ZN7CINEMA612KeyComponentD1Ev
libcinema6.so:_ZN7CINEMA612KeyComponentD2Ev
libcinema6.so:_ZN7CINEMA613AlignmentView10childEventEP11QChildEvent
libcinema6.so:_ZN7CINEMA613AlignmentView10leaveEventEP6QEvent
libcinema6.so:_ZN7CINEMA613AlignmentView10moveAspectEiNS0_14AspectPositionEiS1_
libcinema6.so:_ZN7CINEMA613AlignmentView10paintEventEP11QPaintEvent
libcinema6.so:_ZN7CINEMA613AlignmentView10wheelEventEP11QWheelEvent
libcinema6.so:_ZN7CINEMA613AlignmentView11qt_metacallEN11QMetaObject4CallEiPPv
libcinema6.so:_ZN7CINEMA613AlignmentView11qt_metacastEPKc
libcinema6.so:_ZN7CINEMA613AlignmentView11resizeEventEP12QResizeEvent
libcinema6.so:_ZN7CINEMA613AlignmentView11setUnitSizeEi
libcinema6.so:_ZN7CINEMA613AlignmentView11zoomChangedEd
libcinema6.so:_ZN7CINEMA613AlignmentView12appendAspectENS0_14AspectPositionEPNS_6AspectE
libcinema6.so:_ZN7CINEMA613AlignmentView12insertAspectEiNS0_14AspectPositionEPNS_6AspectE
libcinema6.so:_ZN7CINEMA613AlignmentView12setSelectionERKNS_9SelectionE
libcinema6.so:_ZN7CINEMA613AlignmentView12takeAspectAtEiNS0_14AspectPositionE
libcinema6.so:_ZN7CINEMA613AlignmentView13dragMoveEventEP14QDragMoveEvent
libcinema6.so:_ZN7CINEMA613AlignmentView13moveComponentEiNS0_17ComponentPositionEiS1_
libcinema6.so:_ZN7CINEMA613AlignmentView13widthsChangedEv
libcinema6.so:_ZN7CINEMA613AlignmentView14dragEnterEventEP15QDragEnterEvent
libcinema6.so:_ZN7CINEMA613AlignmentView14heightsChangedEv
libcinema6.so:_ZN7CINEMA613AlignmentView14mouseMoveEventEP11QMouseEvent
libcinema6.so:_ZN7CINEMA613AlignmentView14removeAspectAtEiNS0_14AspectPositionE
libcinema6.so:_ZN7CINEMA613AlignmentView15activateGapModeEv
libcinema6.so:_ZN7CINEMA613AlignmentView15appendComponentENS0_17ComponentPositionEPNS_9ComponentE
libcinema6.so:_ZN7CINEMA613AlignmentView15insertComponentEiNS0_17ComponentPositionEPNS_9ComponentE
libcinema6.so:_ZN7CINEMA613AlignmentView15mousePressEventEP11QMouseEvent
libcinema6.so:_ZN7CINEMA613AlignmentView15setAspectMarginEi
libcinema6.so:_ZN7CINEMA613AlignmentView15takeComponentAtEiNS0_17ComponentPositionE
libcinema6.so:_ZN7CINEMA613AlignmentView15unitSizeChangedEi
libcinema6.so:_ZN7CINEMA613AlignmentView16scrollContentsByEii
libcinema6.so:_ZN7CINEMA613AlignmentView16setAspectSpacingEi
libcinema6.so:_ZN7CINEMA613AlignmentView17activateSlideModeEv
libcinema6.so:_ZN7CINEMA613AlignmentView17mouseReleaseEventEP11QMouseEvent
libcinema6.so:_ZN7CINEMA613AlignmentView17removeComponentAtEiNS0_17ComponentPositionE
libcinema6.so:_ZN7CINEMA613AlignmentView18activateSelectModeEv
libcinema6.so:_ZN7CINEMA613AlignmentView18setInteractionModeENS0_15InteractionModeE
libcinema6.so:_ZN7CINEMA613AlignmentView20activateAnnotateModeEv
libcinema6.so:_ZN7CINEMA613AlignmentView20setDiscreteScrollingEb
libcinema6.so:_ZN7CINEMA613AlignmentView21mouseDoubleClickEventEP11QMouseEvent
libcinema6.so:_ZN7CINEMA613AlignmentView21setVerticalScrollAreaERK5QRect
libcinema6.so:_ZN7CINEMA613AlignmentView23setHorizontalScrollAreaERK5QRect
libcinema6.so:_ZN7CINEMA613AlignmentView4loadEPN6Utopia4NodeE
libcinema6.so:_ZN7CINEMA613AlignmentView6zoomInEi
libcinema6.so:_ZN7CINEMA613AlignmentView7setZoomEd
libcinema6.so:_ZN7CINEMA613AlignmentView7zoomOutEi
libcinema6.so:_ZN7CINEMA613AlignmentView9dropEventEP10QDropEvent
libcinema6.so:_ZN7CINEMA613AlignmentViewC1EP7QWidget
libcinema6.so:_ZN7CINEMA613AlignmentViewC2EP7QWidget
libcinema6.so:_ZN7CINEMA613AlignmentViewD0Ev
libcinema6.so:_ZN7CINEMA613AlignmentViewD1Ev
libcinema6.so:_ZN7CINEMA613AlignmentViewD2Ev
libcinema6.so:_ZN7CINEMA613ControlAspect10leaveEventEPNS_9ComponentE
libcinema6.so:_ZN7CINEMA613ControlAspect11qt_metacallEN11QMetaObject4CallEiPPv
libcinema6.so:_ZN7CINEMA613ControlAspect11qt_metacastEPKc
libcinema6.so:_ZN7CINEMA613ControlAspect14mouseMoveEventEPNS_9ComponentEP11QMouseEvent
libcinema6.so:_ZN7CINEMA613ControlAspect15mousePressEventEPNS_9ComponentEP11QMouseEvent
libcinema6.so:_ZN7CINEMA613ControlAspect17mouseReleaseEventEPNS_9ComponentEP11QMouseEvent
libcinema6.so:_ZN7CINEMA613ControlAspect21mouseDoubleClickEventEPNS_9ComponentEP11QMouseEvent
libcinema6.so:_ZN7CINEMA613ControlAspect5paintEP8QPainterRK5QRectS5_PNS_9ComponentE
libcinema6.so:_ZN7CINEMA613ControlAspectC1ERK7QString
libcinema6.so:_ZN7CINEMA613ControlAspectC2ERK7QString
libcinema6.so:_ZN7CINEMA613ControlAspectD0Ev
libcinema6.so:_ZN7CINEMA613ControlAspectD1Ev
libcinema6.so:_ZN7CINEMA613ControlAspectD2Ev
libcinema6.so:_ZN7CINEMA613DataComponent11dataChangedEv
libcinema6.so:_ZN7CINEMA613DataComponent11qt_metacallEN11QMetaObject4CallEiPPv
libcinema6.so:_ZN7CINEMA613DataComponent11qt_metacastEPKc
libcinema6.so:_ZN7CINEMA613DataComponent12widthChangedEi
libcinema6.so:_ZN7CINEMA613DataComponentC2ERK7QString
libcinema6.so:_ZN7CINEMA613DataComponentD0Ev
libcinema6.so:_ZN7CINEMA613DataComponentD1Ev
libcinema6.so:_ZN7CINEMA613DataComponentD2Ev
libcinema6.so:_ZN7CINEMA613inCloseButtonEPNS_6AspectEPNS_9ComponentERK6QPoint
libcinema6.so:_ZN7CINEMA614SelectionRange5setToEi
libcinema6.so:_ZN7CINEMA614SelectionRange7setFromEi
libcinema6.so:_ZN7CINEMA614SelectionRange8adjacentERKS0_
libcinema6.so:_ZN7CINEMA614SelectionRange8setRangeEii
libcinema6.so:_ZN7CINEMA614SelectionRangeC1ERKS0_
libcinema6.so:_ZN7CINEMA614SelectionRangeC1Eii
libcinema6.so:_ZN7CINEMA614SelectionRangeC1Ev
libcinema6.so:_ZN7CINEMA614SelectionRangeC2ERKS0_
libcinema6.so:_ZN7CINEMA614SelectionRangeC2Eii
libcinema6.so:_ZN7CINEMA614SelectionRangeC2Ev
libcinema6.so:_ZN7CINEMA616AbstractSequence11qt_metacallEN11QMetaObject4CallEiPPv
libcinema6.so:_ZN7CINEMA616AbstractSequence11qt_metacastEPKc
libcinema6.so:_ZN7CINEMA616AbstractSequence5slideEi
libcinema6.so:_ZN7CINEMA616AbstractSequence7changedEv
libcinema6.so:_ZN7CINEMA616AbstractSequence9setOffsetEi
libcinema6.so:_ZN7CINEMA616AbstractSequenceD0Ev
libcinema6.so:_ZN7CINEMA616AbstractSequenceD1Ev
libcinema6.so:_ZN7CINEMA616AbstractSequenceD2Ev
libcinema6.so:_ZN7CINEMA617AbstractComponent10leaveEventEv
libcinema6.so:_ZN7CINEMA617AbstractComponent10zoomUpdateEd
libcinema6.so:_ZN7CINEMA617AbstractComponent11qt_metacallEN11QMetaObject4CallEiPPv
libcinema6.so:_ZN7CINEMA617AbstractComponent11qt_metacastEPKc
libcinema6.so:_ZN7CINEMA617AbstractComponent11renderEventEPNS_11RenderEventE
libcinema6.so:_ZN7CINEMA617AbstractComponent11styleUpdateEv
libcinema6.so:_ZN7CINEMA617AbstractComponent12setResizableEb
libcinema6.so:_ZN7CINEMA617AbstractComponent14mouseMoveEventEP11QMouseEvent
libcinema6.so:_ZN7CINEMA617AbstractComponent14unitSizeUpdateEi
libcinema6.so:_ZN7CINEMA617AbstractComponent15mousePressEventEP11QMouseEvent
libcinema6.so:_ZN7CINEMA617AbstractComponent15setDisplayFlagsE6QFlagsINS0_11DisplayFlagEE
libcinema6.so:_ZN7CINEMA617AbstractComponent17mouseReleaseEventEP11QMouseEvent
libcinema6.so:_ZN7CINEMA617AbstractComponent21mouseDoubleClickEventEP11QMouseEvent
libcinema6.so:_ZN7CINEMA617AbstractComponent5eventEP6QEvent
libcinema6.so:_ZN7CINEMA617AbstractComponent8setTitleERK7QString
libcinema6.so:_ZN7CINEMA617AbstractComponentC2ERK7QString
libcinema6.so:_ZN7CINEMA617AbstractComponentD0Ev
libcinema6.so:_ZN7CINEMA617AbstractComponentD1Ev
libcinema6.so:_ZN7CINEMA617AbstractComponentD2Ev
libcinema6.so:_ZN7CINEMA617SequenceComponent11dataChangedEv
libcinema6.so:_ZN7CINEMA617SequenceComponent11qt_metacallEN11QMetaObject4CallEiPPv
libcinema6.so:_ZN7CINEMA617SequenceComponent11qt_metacastEPKc
libcinema6.so:_ZN7CINEMA617SequenceComponent6renderEP12QPaintDeviceRK6QPointRK5QRect
libcinema6.so:_ZN7CINEMA617SequenceComponentC1EPNS_8SequenceE
libcinema6.so:_ZN7CINEMA617SequenceComponentC2EPNS_8SequenceE
libcinema6.so:_ZN7CINEMA617SequenceComponentD0Ev
libcinema6.so:_ZN7CINEMA617SequenceComponentD1Ev
libcinema6.so:_ZN7CINEMA617SequenceComponentD2Ev
libcinema6.so:_ZN7CINEMA619AnnotationComponent11qt_metacallEN11QMetaObject4CallEiPPv
libcinema6.so:_ZN7CINEMA619AnnotationComponent11qt_metacastEPKc
libcinema6.so:_ZN7CINEMA619AnnotationComponent20setSequenceComponentEPNS_17SequenceComponentE
libcinema6.so:_ZN7CINEMA619AnnotationComponent5paintEP8QPainterRK5QRect
libcinema6.so:_ZN7CINEMA619AnnotationComponentC1ERK7QString
libcinema6.so:_ZN7CINEMA619AnnotationComponentC2ERK7QString
libcinema6.so:_ZN7CINEMA619AnnotationComponentD0Ev
libcinema6.so:_ZN7CINEMA619AnnotationComponentD1Ev
libcinema6.so:_ZN7CINEMA619AnnotationComponentD2Ev
libcinema6.so:_ZN7CINEMA624DoubleHelixPixmapFactory10backgroundE6QSizeF
libcinema6.so:_ZN7CINEMA624DoubleHelixPixmapFactory10foregroundE6QSizeF
libcinema6.so:_ZN7CINEMA624DoubleHelixPixmapFactory4baseE6QSizeFi
libcinema6.so:_ZN7CINEMA66Aspect10leaveEventEPNS_9ComponentE
libcinema6.so:_ZN7CINEMA66Aspect11qt_metacallEN11QMetaObject4CallEiPPv
libcinema6.so:_ZN7CINEMA66Aspect11qt_metacastEPKc
libcinema6.so:_ZN7CINEMA66Aspect11renderEventEPNS_11RenderEventE
libcinema6.so:_ZN7CINEMA66Aspect14mouseMoveEventEPNS_9ComponentEP11QMouseEvent
libcinema6.so:_ZN7CINEMA66Aspect14setWidthFactorEd
libcinema6.so:_ZN7CINEMA66Aspect15mousePressEventEPNS_9ComponentEP11QMouseEvent
libcinema6.so:_ZN7CINEMA66Aspect17mouseReleaseEventEPNS_9ComponentEP11QMouseEvent
libcinema6.so:_ZN7CINEMA66Aspect21mouseDoubleClickEventEPNS_9ComponentEP11QMouseEvent
libcinema6.so:_ZN7CINEMA66Aspect5eventEP6QEvent
libcinema6.so:_ZN7CINEMA66Aspect5paintEP8QPainterRK5QRect
libcinema6.so:_ZN7CINEMA66Aspect5paintEP8QPainterRK5QRectS5_PNS_9ComponentE
libcinema6.so:_ZN7CINEMA66Aspect6updateEPNS_9ComponentE
libcinema6.so:_ZN7CINEMA66Aspect6updateEv
libcinema6.so:_ZN7CINEMA66Aspect7setLeftEi
libcinema6.so:_ZN7CINEMA66Aspect8setWidthEi
libcinema6.so:_ZN7CINEMA66AspectC1ERK7QString
libcinema6.so:_ZN7CINEMA66AspectC2ERK7QString
libcinema6.so:_ZN7CINEMA66AspectD0Ev
libcinema6.so:_ZN7CINEMA66AspectD1Ev
libcinema6.so:_ZN7CINEMA66AspectD2Ev
libcinema6.so:_ZN7CINEMA68Sequence11qt_metacallEN11QMetaObject4CallEiPPv
libcinema6.so:_ZN7CINEMA68Sequence11qt_metacastEPKc
libcinema6.so:_ZN7CINEMA68Sequence6setGapEii
libcinema6.so:_ZN7CINEMA68SequenceC1EPN6Utopia4NodeE
libcinema6.so:_ZN7CINEMA68SequenceC2EPN6Utopia4NodeE
libcinema6.so:_ZN7CINEMA68SequenceD0Ev
libcinema6.so:_ZN7CINEMA68SequenceD1Ev
libcinema6.so:_ZN7CINEMA68SequenceD2Ev
libcinema6.so:_ZN7CINEMA68isAspectEPKNS_17AbstractComponentE
libcinema6.so:_ZN7CINEMA69Component10zoomUpdateEd
libcinema6.so:_ZN7CINEMA69Component11qt_metacallEN11QMetaObject4CallEiPPv
libcinema6.so:_ZN7CINEMA69Component11qt_metacastEPKc
libcinema6.so:_ZN7CINEMA69Component11renderEventEPNS_11RenderEventE
libcinema6.so:_ZN7CINEMA69Component14setRelativeTopEi
libcinema6.so:_ZN7CINEMA69Component14unitSizeUpdateEi
libcinema6.so:_ZN7CINEMA69Component14updateGeometryEv
libcinema6.so:_ZN7CINEMA69Component15setHeightFactorEd
libcinema6.so:_ZN7CINEMA69Component16alignmentIndexAtERK6QPoint
libcinema6.so:_ZN7CINEMA69Component5paintEP8QPainterRK5QRect
libcinema6.so:_ZN7CINEMA69Component6renderEP12QPaintDeviceRK6QPointRK5QRect
libcinema6.so:_ZN7CINEMA69Component6setTopEi
libcinema6.so:_ZN7CINEMA69Component6updateEv
libcinema6.so:_ZN7CINEMA69Component9setHeightEi
libcinema6.so:_ZN7CINEMA69ComponentC1ERK7QString
libcinema6.so:_ZN7CINEMA69ComponentC2ERK7QString
libcinema6.so:_ZN7CINEMA69ComponentD0Ev
libcinema6.so:_ZN7CINEMA69ComponentD1Ev
libcinema6.so:_ZN7CINEMA69ComponentD2Ev
libcinema6.so:_ZN7CINEMA69Selection5mergeERKS0_NS0_13SelectionFlagE
libcinema6.so:_ZN7CINEMA69Selection5splitERKNS_14SelectionRangeES3_PS0_
libcinema6.so:_ZN7CINEMA69Selection6selectEii
libcinema6.so:_ZN7CINEMA69SelectionC1Eii
libcinema6.so:_ZN7CINEMA69SelectionC1Ev
libcinema6.so:_ZN7CINEMA69SelectionC2Eii
libcinema6.so:_ZN7CINEMA69SelectionC2Ev
libcinema6.so:_ZNK7CINEMA611GroupAspect10metaObjectEv
libcinema6.so:_ZNK7CINEMA611GroupAspect5widthEv
libcinema6.so:_ZNK7CINEMA611RenderEvent4rectEv
libcinema6.so:_ZNK7CINEMA611RenderEvent7painterEv
libcinema6.so:_ZNK7CINEMA611TitleAspect10metaObjectEv
libcinema6.so:_ZNK7CINEMA611TitleAspect5widthEv
libcinema6.so:_ZNK7CINEMA612KeyComponent10metaObjectEv
libcinema6.so:_ZNK7CINEMA612KeyComponent6heightEv
libcinema6.so:_ZNK7CINEMA613AlignmentView10metaObjectEv
libcinema6.so:_ZNK7CINEMA613AlignmentView11aspectCountENS0_14AspectPositionE
libcinema6.so:_ZNK7CINEMA613AlignmentView11aspectCountEv
libcinema6.so:_ZNK7CINEMA613AlignmentView11aspectUnderEi
libcinema6.so:_ZNK7CINEMA613AlignmentView11componentAtEiNS0_17ComponentPositionE
libcinema6.so:_ZNK7CINEMA613AlignmentView12aspectMarginEv
libcinema6.so:_ZNK7CINEMA613AlignmentView13aspectSpacingEv
libcinema6.so:_ZNK7CINEMA613AlignmentView13indexOfAspectEPNS_6AspectENS0_14AspectPositionE
libcinema6.so:_ZNK7CINEMA613AlignmentView14aspectPositionEPNS_6AspectE
libcinema6.so:_ZNK7CINEMA613AlignmentView14componentCountENS0_17ComponentPositionE
libcinema6.so:_ZNK7CINEMA613AlignmentView14componentCountEv
libcinema6.so:_ZNK7CINEMA613AlignmentView14componentUnderEi
libcinema6.so:_ZNK7CINEMA613AlignmentView15interactionModeEv
libcinema6.so:_ZNK7CINEMA613AlignmentView16aspectRangeWidthEiiNS0_14AspectPositionE
libcinema6.so:_ZNK7CINEMA613AlignmentView16documentGeometryEv
libcinema6.so:_ZNK7CINEMA613AlignmentView16indexOfComponentEPNS_9ComponentENS0_17ComponentPositionE
libcinema6.so:_ZNK7CINEMA613AlignmentView17componentPositionEPNS_9ComponentE
libcinema6.so:_ZNK7CINEMA613AlignmentView19isDiscreteScrollingEv
libcinema6.so:_ZNK7CINEMA613AlignmentView20componentRangeHeightEiiNS0_17ComponentPositionE
libcinema6.so:_ZNK7CINEMA613AlignmentView21actualToLogicalAspectEi
libcinema6.so:_ZNK7CINEMA613AlignmentView21logicalToActualAspectEiNS0_14AspectPositionE
libcinema6.so:_ZNK7CINEMA613AlignmentView24actualToLogicalComponentEi
libcinema6.so:_ZNK7CINEMA613AlignmentView24logicalToActualComponentEiNS0_17ComponentPositionE
libcinema6.so:_ZNK7CINEMA613AlignmentView4zoomEv
libcinema6.so:_ZNK7CINEMA613AlignmentView5mapToEPNS_17AbstractComponentERK5QRect
libcinema6.so:_ZNK7CINEMA613AlignmentView5mapToEPNS_17AbstractComponentERK6QPoint
libcinema6.so:_ZNK7CINEMA613AlignmentView7mapFromEPNS_17AbstractComponentERK5QRect
libcinema6.so:_ZNK7CINEMA613AlignmentView7mapFromEPNS_17AbstractComponentERK6QPoint
libcinema6.so:_ZNK7CINEMA613AlignmentView8aspectAtEiNS0_14AspectPositionE
libcinema6.so:_ZNK7CINEMA613AlignmentView8supportsEPN6Utopia4NodeE
libcinema6.so:_ZNK7CINEMA613AlignmentView8unitSizeEv
libcinema6.so:_ZNK7CINEMA613AlignmentView9selectionEv
libcinema6.so:_ZNK7CINEMA613AlignmentView9unitSizeFEv
libcinema6.so:_ZNK7CINEMA613ControlAspect10metaObjectEv
libcinema6.so:_ZNK7CINEMA613ControlAspect5widthEv
libcinema6.so:_ZNK7CINEMA613DataComponent10metaObjectEv
libcinema6.so:_ZNK7CINEMA614SelectionRange10intersectsERKS0_
libcinema6.so:_ZNK7CINEMA614SelectionRange11intersectedERKS0_
libcinema6.so:_ZNK7CINEMA614SelectionRange2toEv
libcinema6.so:_ZNK7CINEMA614SelectionRange4fromEv
libcinema6.so:_ZNK7CINEMA614SelectionRange4sizeEv
libcinema6.so:_ZNK7CINEMA614SelectionRange6unitedERKS0_
libcinema6.so:_ZNK7CINEMA614SelectionRange7isValidEv
libcinema6.so:_ZNK7CINEMA614SelectionRange8containsEi
libcinema6.so:_ZNK7CINEMA616AbstractSequence10metaObjectEv
libcinema6.so:_ZNK7CINEMA616AbstractSequence6offsetEv
libcinema6.so:_ZNK7CINEMA617AbstractComponent10metaObjectEv
libcinema6.so:_ZNK7CINEMA617AbstractComponent11isResizableEv
libcinema6.so:_ZNK7CINEMA617AbstractComponent12displayFlagsEv
libcinema6.so:_ZNK7CINEMA617AbstractComponent13alignmentViewEv
libcinema6.so:_ZNK7CINEMA617AbstractComponent3posEv
libcinema6.so:_ZNK7CINEMA617AbstractComponent4rectEv
libcinema6.so:_ZNK7CINEMA617AbstractComponent4sizeEv
libcinema6.so:_ZNK7CINEMA617AbstractComponent5titleEv
libcinema6.so:_ZNK7CINEMA617AbstractComponent8geometryEv
libcinema6.so:_ZNK7CINEMA617SequenceComponent10metaObjectEv
libcinema6.so:_ZNK7CINEMA617SequenceComponent5titleEv
libcinema6.so:_ZNK7CINEMA617SequenceComponent8sequenceEv
libcinema6.so:_ZNK7CINEMA619AnnotationComponent10metaObjectEv
libcinema6.so:_ZNK7CINEMA619AnnotationComponent17sequenceComponentEv
libcinema6.so:_ZNK7CINEMA619AnnotationComponent6heightEv
libcinema6.so:_ZNK7CINEMA619AnnotationComponent8sequenceEv
libcinema6.so:_ZNK7CINEMA66Aspect10metaObjectEv
libcinema6.so:_ZNK7CINEMA66Aspect11widthFactorEv
libcinema6.so:_ZNK7CINEMA66Aspect3topEv
libcinema6.so:_ZNK7CINEMA66Aspect4leftEv
libcinema6.so:_ZNK7CINEMA66Aspect5widthEv
libcinema6.so:_ZNK7CINEMA66Aspect6heightEv
libcinema6.so:_ZNK7CINEMA68Sequence10metaObjectEv
libcinema6.so:_ZNK7CINEMA68Sequence13mapToSequenceEi
libcinema6.so:_ZNK7CINEMA68Sequence15mapFromSequenceEi
libcinema6.so:_ZNK7CINEMA68Sequence3gapEi
libcinema6.so:_ZNK7CINEMA68Sequence5titleEv
libcinema6.so:_ZNK7CINEMA68Sequence8toStringEv
libcinema6.so:_ZNK7CINEMA69Component10metaObjectEv
libcinema6.so:_ZNK7CINEMA69Component12heightFactorEv
libcinema6.so:_ZNK7CINEMA69Component3topEv
libcinema6.so:_ZNK7CINEMA69Component4leftEv
libcinema6.so:_ZNK7CINEMA69Component5widthEv
libcinema6.so:_ZNK7CINEMA69Component6heightEv
libcinema6.so:_ZNK7CINEMA69Component6rectAtEi
libcinema6.so:_ZNK7CINEMA69Selection7indicesEv
libcinema6.so:_ZNK7CINEMA69Selection8containsEi
libcinema6.so:_ZThn16_N7CINEMA613AlignmentViewD0Ev
libcinema6.so:_ZThn16_N7CINEMA613AlignmentViewD1Ev
libcinema6.so:_ZThn48_N7CINEMA613AlignmentView4loadEPN6Utopia4NodeE
libcinema6.so:_ZThn48_N7CINEMA613AlignmentViewD0Ev
libcinema6.so:_ZThn48_N7CINEMA613AlignmentViewD1Ev
libcinema6.so:_ZThn48_NK7CINEMA613AlignmentView8supportsEPN6Utopia4NodeE
libcinema6.so:_Zls6QDebugRKN7CINEMA614SelectionRangeE
libcrackle.so:_ZN15CrackleTextFlow8addBlockEP16CrackleTextBlock
libcrackle.so:_ZN15CrackleTextFlow9blockFitsEP16CrackleTextBlockS1_
libcrackle.so:_ZN15CrackleTextFlowC1EP15CrackleTextPageP16CrackleTextBlock
libcrackle.so:_ZN15CrackleTextFlowC2EP15CrackleTextPageP16CrackleTextBlock
libcrackle.so:_ZN15CrackleTextFlowD1Ev
libcrackle.so:_ZN15CrackleTextFlowD2Ev
libcrackle.so:_ZN15CrackleTextLine10primaryCmpEPS_
libcrackle.so:_ZN15CrackleTextLine12primaryDeltaEPS_
libcrackle.so:_ZN15CrackleTextLine12secondaryCmpEPS_
libcrackle.so:_ZN15CrackleTextLine5cmpXYEPKvS1_
libcrackle.so:_ZN15CrackleTextLine5cmpYXEPS_
libcrackle.so:_ZN15CrackleTextLine7addWordEP15CrackleTextWord
libcrackle.so:_ZN15CrackleTextLine8coalesceEP10UnicodeMap
libcrackle.so:_ZN15CrackleTextLineC1EP16CrackleTextBlockid
libcrackle.so:_ZN15CrackleTextLineC2EP16CrackleTextBlockid
libcrackle.so:_ZN15CrackleTextLineD1Ev
libcrackle.so:_ZN15CrackleTextLineD2Ev
libcrackle.so:_ZN15CrackleTextPage10updateFontEP8GfxState
libcrackle.so:_ZN15CrackleTextPage12addUnderlineEdddd
libcrackle.so:_ZN15CrackleTextPage12dumpFragmentEPjiP10UnicodeMapP9GooString
libcrackle.so:_ZN15CrackleTextPage12incCharCountEi
libcrackle.so:_ZN15CrackleTextPage12makeWordListEb
libcrackle.so:_ZN15CrackleTextPage13assignColumnsEP19CrackleTextLineFragib
libcrackle.so:_ZN15CrackleTextPage13endActualTextEP8GfxState
libcrackle.so:_ZN15CrackleTextPage13findCharRangeEiiPdS0_S0_S0_
libcrackle.so:_ZN15CrackleTextPage15beginActualTextEP8GfxStatePji
libcrackle.so:_ZN15CrackleTextPage4dumpEPvPFvS0_PKciEb
libcrackle.so:_ZN15CrackleTextPage5clearEv
libcrackle.so:_ZN15CrackleTextPage7addCharEP8GfxStateddddjiPji
libcrackle.so:_ZN15CrackleTextPage7addLinkEiiiiP9AnnotLink
libcrackle.so:_ZN15CrackleTextPage7addWordEP15CrackleTextWord
libcrackle.so:_ZN15CrackleTextPage7endPageEv
libcrackle.so:_ZN15CrackleTextPage7endWordEv
libcrackle.so:_ZN15CrackleTextPage7getTextEdddd
libcrackle.so:_ZN15CrackleTextPage8coalesceEbdb
libcrackle.so:_ZN15CrackleTextPage8findTextEPjibbbbbbbPdS1_S1_S1_
libcrackle.so:_ZN15CrackleTextPage9beginWordEP8GfxStatedd
libcrackle.so:_ZN15CrackleTextPage9startPageEP8GfxState
libcrackle.so:_ZN15CrackleTextPageC1Eb
libcrackle.so:_ZN15CrackleTextPageC2Eb
libcrackle.so:_ZN15CrackleTextPageD1Ev
libcrackle.so:_ZN15CrackleTextPageD2Ev
libcrackle.so:_ZN15CrackleTextPool10getBaseIdxEd
libcrackle.so:_ZN15CrackleTextPool7addWordEP15CrackleTextWord
libcrackle.so:_ZN15CrackleTextPoolC1Ev
libcrackle.so:_ZN15CrackleTextPoolC2Ev
libcrackle.so:_ZN15CrackleTextPoolD1Ev
libcrackle.so:_ZN15CrackleTextPoolD2Ev
libcrackle.so:_ZN15CrackleTextWord11getCharBBoxEiPdS0_S0_S0_
libcrackle.so:_ZN15CrackleTextWord12primaryDeltaEPS_
libcrackle.so:_ZN15CrackleTextWord5cmpYXEPKvS1_
libcrackle.so:_ZN15CrackleTextWord5mergeEPS_
libcrackle.so:_ZN15CrackleTextWord7addCharEP8GfxStateddddiij
libcrackle.so:_ZN15CrackleTextWord7getTextEv
libcrackle.so:_ZN15CrackleTextWordC1EP8GfxStateiddP19CrackleTextFontInfod
libcrackle.so:_ZN15CrackleTextWordC2EP8GfxStateiddP19CrackleTextFontInfod
libcrackle.so:_ZN15CrackleTextWordD1Ev
libcrackle.so:_ZN15CrackleTextWordD2Ev
libcrackle.so:_ZN16CrackleTextBlock10primaryCmpEPS_
libcrackle.so:_ZN16CrackleTextBlock14secondaryDeltaEPS_
libcrackle.so:_ZN16CrackleTextBlock15cmpXYPrimaryRotEPKvS1_
libcrackle.so:_ZN16CrackleTextBlock15cmpYXPrimaryRotEPKvS1_
libcrackle.so:_ZN16CrackleTextBlock15updatePriMinMaxEPS_
libcrackle.so:_ZN16CrackleTextBlock7addWordEP15CrackleTextWord
libcrackle.so:_ZN16CrackleTextBlock7isBelowEPS_
libcrackle.so:_ZN16CrackleTextBlock8coalesceEP10UnicodeMapd
libcrackle.so:_ZN16CrackleTextBlockC1EP15CrackleTextPagei
libcrackle.so:_ZN16CrackleTextBlockC2EP15CrackleTextPagei
libcrackle.so:_ZN16CrackleTextBlockD1Ev
libcrackle.so:_ZN16CrackleTextBlockD2Ev
libcrackle.so:_ZN19CrackleTextFontInfo7matchesEP8GfxState
libcrackle.so:_ZN19CrackleTextFontInfoC1EP8GfxState
libcrackle.so:_ZN19CrackleTextFontInfoC2EP8GfxState
libcrackle.so:_ZN19CrackleTextFontInfoD1Ev
libcrackle.so:_ZN19CrackleTextFontInfoD2Ev
libcrackle.so:_ZN19CrackleTextLineFrag12cmpXYLineRotEPKvS1_
libcrackle.so:_ZN19CrackleTextLineFrag12cmpYXLineRotEPKvS1_
libcrackle.so:_ZN19CrackleTextLineFrag13computeCoordsEb
libcrackle.so:_ZN19CrackleTextLineFrag15cmpYXPrimaryRotEPKvS1_
libcrackle.so:_ZN19CrackleTextLineFrag18cmpXYColumnLineRotEPKvS1_
libcrackle.so:_ZN19CrackleTextLineFrag21cmpXYColumnPrimaryRotEPKvS1_
libcrackle.so:_ZN19CrackleTextLineFrag4initEP15CrackleTextLineii
libcrackle.so:_ZN19CrackleTextWordList3getEi
libcrackle.so:_ZN19CrackleTextWordList9getLengthEv
libcrackle.so:_ZN19CrackleTextWordListC1EP15CrackleTextPageb
libcrackle.so:_ZN19CrackleTextWordListC2EP15CrackleTextPageb
libcrackle.so:_ZN19CrackleTextWordListD1Ev
libcrackle.so:_ZN19CrackleTextWordListD2Ev
libcrackle.so:_ZN20CrackleTextOutputDev10updateFontEP8GfxState
libcrackle.so:_ZN20CrackleTextOutputDev11beginStringEP8GfxStateP9GooString
libcrackle.so:_ZN20CrackleTextOutputDev11processLinkEP9AnnotLink
libcrackle.so:_ZN20CrackleTextOutputDev12incCharCountEi
libcrackle.so:_ZN20CrackleTextOutputDev12makeWordListEv
libcrackle.so:_ZN20CrackleTextOutputDev12restoreStateEP8GfxState
libcrackle.so:_ZN20CrackleTextOutputDev13endActualTextEP8GfxState
libcrackle.so:_ZN20CrackleTextOutputDev13findCharRangeEiiPdS0_S0_S0_
libcrackle.so:_ZN20CrackleTextOutputDev15beginActualTextEP8GfxStatePji
libcrackle.so:_ZN20CrackleTextOutputDev4fillEP8GfxState
libcrackle.so:_ZN20CrackleTextOutputDev6eoFillEP8GfxState
libcrackle.so:_ZN20CrackleTextOutputDev6strokeEP8GfxState
libcrackle.so:_ZN20CrackleTextOutputDev7endPageEv
libcrackle.so:_ZN20CrackleTextOutputDev7getTextEdddd
libcrackle.so:_ZN20CrackleTextOutputDev8drawCharEP8GfxStateddddddjiPji
libcrackle.so:_ZN20CrackleTextOutputDev8findTextEPjibbbbbbbPdS1_S1_S1_
libcrackle.so:_ZN20CrackleTextOutputDev8takeTextEv
libcrackle.so:_ZN20CrackleTextOutputDev9drawImageEP8GfxStateP6ObjectP6StreamiiP16GfxImageColorMapPibb
libcrackle.so:_ZN20CrackleTextOutputDev9endStringEP8GfxState
libcrackle.so:_ZN20CrackleTextOutputDev9startPageEiP8GfxState
libcrackle.so:_ZN20CrackleTextOutputDevC1EPFvPvPKciES0_bdb
libcrackle.so:_ZN20CrackleTextOutputDevC1EPcbdbb
libcrackle.so:_ZN20CrackleTextOutputDevC2EPFvPvPKciES0_bdb
libcrackle.so:_ZN20CrackleTextOutputDevC2EPcbdbb
libcrackle.so:_ZN20CrackleTextOutputDevD0Ev
libcrackle.so:_ZN20CrackleTextOutputDevD1Ev
libcrackle.so:_ZN20CrackleTextOutputDevD2Ev
libcrackle.so:_ZN7Crackle11PDFDocument10_addAnchorEP6ObjectNSt7__cxx1112basic_stringIcSt11char_traitsIcESaIcEEE
libcrackle.so:_ZN7Crackle11PDFDocument10_addAnchorEP8LinkDestNSt7__cxx1112basic_stringIcSt11char_traitsIcESaIcEEE
libcrackle.so:_ZN7Crackle11PDFDocument10pageLayoutEv
libcrackle.so:_ZN7Crackle11PDFDocument10readBufferEN5boost12shared_arrayIcEEm
libcrackle.so:_ZN7Crackle11PDFDocument11_initialiseEv
libcrackle.so:_ZN7Crackle11PDFDocument11errorStringEv
libcrackle.so:_ZN7Crackle11PDFDocument12creationDateEv
libcrackle.so:_ZN7Crackle11PDFDocument12fingerprintsB5cxx11Ev
libcrackle.so:_ZN7Crackle11PDFDocument13_extractLinksEv
libcrackle.so:_ZN7Crackle11PDFDocument13numberOfPagesEv
libcrackle.so:_ZN7Crackle11PDFDocument15_extractOutlineEP7GooListNSt7__cxx1112basic_stringIcSt11char_traitsIcESaIcEEEP10UnicodeMap
libcrackle.so:_ZN7Crackle11PDFDocument15_updateNameTreeEP6Object
libcrackle.so:_ZN7Crackle11PDFDocument16modificationDateEv
libcrackle.so:_ZN7Crackle11PDFDocument18_updateAnnotationsEv
libcrackle.so:_ZN7Crackle11PDFDocument3endEv
libcrackle.so:_ZN7Crackle11PDFDocument4dataB5cxx11Ev
libcrackle.so:_ZN7Crackle11PDFDocument4isOKEv
libcrackle.so:_ZN7Crackle11PDFDocument4sizeEv
libcrackle.so:_ZN7Crackle11PDFDocument5_openEP10BaseStream
libcrackle.so:_ZN7Crackle11PDFDocument5beginEv
libcrackle.so:_ZN7Crackle11PDFDocument5cloneEv
libcrackle.so:_ZN7Crackle11PDFDocument5closeEv
libcrackle.so:_ZN7Crackle11PDFDocument5titleB5cxx11Ev
libcrackle.so:_ZN7Crackle11PDFDocument6authorB5cxx11Ev
libcrackle.so:_ZN7Crackle11PDFDocument7creatorB5cxx11Ev
libcrackle.so:_ZN7Crackle11PDFDocument7subjectB5cxx11Ev
libcrackle.so:_ZN7Crackle11PDFDocument8filehashB5cxx11Ev
libcrackle.so:_ZN7Crackle11PDFDocument8keywordsB5cxx11Ev
libcrackle.so:_ZN7Crackle11PDFDocument8metadataB5cxx11Ev
libcrackle.so:_ZN7Crackle11PDFDocument8producerB5cxx11Ev
libcrackle.so:_ZN7Crackle11PDFDocument8readFileEPKc
libcrackle.so:_ZN7Crackle11PDFDocument8uniqueIDB5cxx11Ev
libcrackle.so:_ZN7Crackle11PDFDocument8viewModeEv
libcrackle.so:_ZN7Crackle11PDFDocument9newCursorEi
libcrackle.so:_ZN7Crackle11PDFDocument9pdfFileIDB5cxx11Ev
libcrackle.so:_ZN7Crackle11PDFDocumentC1EN5boost12shared_arrayIcEEm
libcrackle.so:_ZN7Crackle11PDFDocumentC1EPKc
libcrackle.so:_ZN7Crackle11PDFDocumentC1Ev
libcrackle.so:_ZN7Crackle11PDFDocumentC2EN5boost12shared_arrayIcEEm
libcrackle.so:_ZN7Crackle11PDFDocumentC2EPKc
libcrackle.so:_ZN7Crackle11PDFDocumentC2Ev
libcrackle.so:_ZN7Crackle11PDFDocumentD0Ev
libcrackle.so:_ZN7Crackle11PDFDocumentD1Ev
libcrackle.so:_ZN7Crackle11PDFDocumentD2Ev
libcrackle.so:_ZN7Crackle11PDFDocumentixEi
libcrackle.so:_ZN7Crackle11PDFTextLine7advanceEv
libcrackle.so:_ZN7Crackle11PDFTextLineC1EP15CrackleTextLine
libcrackle.so:_ZN7Crackle11PDFTextLineC1ERKS0_
libcrackle.so:_ZN7Crackle11PDFTextLineC2EP15CrackleTextLine
libcrackle.so:_ZN7Crackle11PDFTextLineC2ERKS0_
libcrackle.so:_ZN7Crackle11PDFTextLineD0Ev
libcrackle.so:_ZN7Crackle11PDFTextLineD1Ev
libcrackle.so:_ZN7Crackle11PDFTextLineD2Ev
libcrackle.so:_ZN7Crackle11PDFTextLineaSERKS0_
libcrackle.so:_ZN7Crackle11PDFTextWord7advanceEv
libcrackle.so:_ZN7Crackle11PDFTextWordC1EP15CrackleTextWord
libcrackle.so:_ZN7Crackle11PDFTextWordC1ERKS0_
libcrackle.so:_ZN7Crackle11PDFTextWordC2EP15CrackleTextWord
libcrackle.so:_ZN7Crackle11PDFTextWordC2ERKS0_
libcrackle.so:_ZN7Crackle11PDFTextWordD0Ev
libcrackle.so:_ZN7Crackle11PDFTextWordD1Ev
libcrackle.so:_ZN7Crackle11PDFTextWordD2Ev
libcrackle.so:_ZN7Crackle11PDFTextWordaSERKS0_
libcrackle.so:_ZN7Crackle12PDFTextBlock7advanceEv
libcrackle.so:_ZN7Crackle12PDFTextBlockC1EP16CrackleTextBlock
libcrackle.so:_ZN7Crackle12PDFTextBlockC1ERKS0_
libcrackle.so:_ZN7Crackle12PDFTextBlockC2EP16CrackleTextBlock
libcrackle.so:_ZN7Crackle12PDFTextBlockC2ERKS0_
libcrackle.so:_ZN7Crackle12PDFTextBlockD0Ev
libcrackle.so:_ZN7Crackle12PDFTextBlockD1Ev
libcrackle.so:_ZN7Crackle12PDFTextBlockD2Ev
libcrackle.so:_ZN7Crackle12PDFTextBlockaSERKS0_
libcrackle.so:_ZN7Crackle13PDFTextRegion7advanceEv
libcrackle.so:_ZN7Crackle13PDFTextRegionC1EP15CrackleTextFlow
libcrackle.so:_ZN7Crackle13PDFTextRegionC1ERKS0_
libcrackle.so:_ZN7Crackle13PDFTextRegionC2EP15CrackleTextFlow
libcrackle.so:_ZN7Crackle13PDFTextRegionC2ERKS0_
libcrackle.so:_ZN7Crackle13PDFTextRegionD0Ev
libcrackle.so:_ZN7Crackle13PDFTextRegionD1Ev
libcrackle.so:_ZN7Crackle13PDFTextRegionD2Ev
libcrackle.so:_ZN7Crackle13PDFTextRegionaSERKS0_
libcrackle.so:_ZN7Crackle16PDFTextCharacter7advanceEv
libcrackle.so:_ZN7Crackle16PDFTextCharacterC1EP15CrackleTextWordi
libcrackle.so:_ZN7Crackle16PDFTextCharacterC1ERKS0_
libcrackle.so:_ZN7Crackle16PDFTextCharacterC2EP15CrackleTextWordi
libcrackle.so:_ZN7Crackle16PDFTextCharacterC2ERKS0_
libcrackle.so:_ZN7Crackle16PDFTextCharacterD0Ev
libcrackle.so:_ZN7Crackle16PDFTextCharacterD1Ev
libcrackle.so:_ZN7Crackle16PDFTextCharacterD2Ev
libcrackle.so:_ZN7Crackle16PDFTextCharacteraSERKS0_
libcrackle.so:_ZN7Crackle7PDFFont11updateSizesERKSt3mapIdiSt4lessIdESaISt4pairIKdiEEE
libcrackle.so:_ZN7Crackle7PDFFont11updateSizesEfi
libcrackle.so:_ZN7Crackle7PDFFontC1EP7GfxFontRKSt3mapIdiSt4lessIdESaISt4pairIKdiEEE
libcrackle.so:_ZN7Crackle7PDFFontC2EP7GfxFontRKSt3mapIdiSt4lessIdESaISt4pairIKdiEEE
libcrackle.so:_ZN7Crackle7PDFPageC1EPNS_11PDFDocumentEjN5boost10shared_ptrI20CrackleTextOutputDevEENS4_I15SplashOutputDevEES8_
libcrackle.so:_ZN7Crackle7PDFPageC1ERKS0_
libcrackle.so:_ZN7Crackle7PDFPageC2EPNS_11PDFDocumentEjN5boost10shared_ptrI20CrackleTextOutputDevEENS4_I15SplashOutputDevEES8_
libcrackle.so:_ZN7Crackle7PDFPageC2ERKS0_
libcrackle.so:_ZN7Crackle7PDFPageD0Ev
libcrackle.so:_ZN7Crackle7PDFPageD1Ev
libcrackle.so:_ZN7Crackle7PDFPageD2Ev
libcrackle.so:_ZN7Crackle7PDFPageaSERKS0_
libcrackle.so:_ZNK7Crackle11PDFTextLine10hyphenatedEv
libcrackle.so:_ZNK7Crackle11PDFTextLine11boundingBoxEv
libcrackle.so:_ZNK7Crackle11PDFTextLine4textB5cxx11Ev
libcrackle.so:_ZNK7Crackle11PDFTextLine5wordsEv
libcrackle.so:_ZNK7Crackle11PDFTextLine8rotationEv
libcrackle.so:_ZNK7Crackle11PDFTextLineeqERKS0_
libcrackle.so:_ZNK7Crackle11PDFTextWord10charactersEv
libcrackle.so:_ZNK7Crackle11PDFTextWord10spaceAfterEv
libcrackle.so:_ZNK7Crackle11PDFTextWord10underlinedEv
libcrackle.so:_ZNK7Crackle11PDFTextWord11boundingBoxEv
libcrackle.so:_ZNK7Crackle11PDFTextWord4textB5cxx11Ev
libcrackle.so:_ZNK7Crackle11PDFTextWord5colorEv
libcrackle.so:_ZNK7Crackle11PDFTextWord8baselineEv
libcrackle.so:_ZNK7Crackle11PDFTextWord8fontNameB5cxx11Ev
libcrackle.so:_ZNK7Crackle11PDFTextWord8fontSizeEv
libcrackle.so:_ZNK7Crackle11PDFTextWord8rotationEv
libcrackle.so:_ZNK7Crackle11PDFTextWordeqERKS0_
libcrackle.so:_ZNK7Crackle12PDFTextBlock11boundingBoxEv
libcrackle.so:_ZNK7Crackle12PDFTextBlock4textB5cxx11Ev
libcrackle.so:_ZNK7Crackle12PDFTextBlock5linesEv
libcrackle.so:_ZNK7Crackle12PDFTextBlock8rotationEv
libcrackle.so:_ZNK7Crackle12PDFTextBlockeqERKS0_
libcrackle.so:_ZNK7Crackle13PDFTextRegion11boundingBoxEv
libcrackle.so:_ZNK7Crackle13PDFTextRegion4textB5cxx11Ev
libcrackle.so:_ZNK7Crackle13PDFTextRegion6blocksEv
libcrackle.so:_ZNK7Crackle13PDFTextRegion8rotationEv
libcrackle.so:_ZNK7Crackle13PDFTextRegioneqERKS0_
libcrackle.so:_ZNK7Crackle16PDFTextCharacter10spaceAfterEv
libcrackle.so:_ZNK7Crackle16PDFTextCharacter10underlinedEv
libcrackle.so:_ZNK7Crackle16PDFTextCharacter11boundingBoxEv
libcrackle.so:_ZNK7Crackle16PDFTextCharacter4fontEv
libcrackle.so:_ZNK7Crackle16PDFTextCharacter5colorEv
libcrackle.so:_ZNK7Crackle16PDFTextCharacter8baselineEv
libcrackle.so:_ZNK7Crackle16PDFTextCharacter8charcodeEv
libcrackle.so:_ZNK7Crackle16PDFTextCharacter8fontNameB5cxx11Ev
libcrackle.so:_ZNK7Crackle16PDFTextCharacter8fontSizeEv
libcrackle.so:_ZNK7Crackle16PDFTextCharacter8rotationEv
libcrackle.so:_ZNK7Crackle16PDFTextCharactereqERKS0_
libcrackle.so:_ZNK7Crackle7PDFFont10isSymbolicEv
libcrackle.so:_ZNK7Crackle7PDFFont10occurencesEv
libcrackle.so:_ZNK7Crackle7PDFFont12isFixedWidthEv
libcrackle.so:_ZNK7Crackle7PDFFont3tagB5cxx11Ev
libcrackle.so:_ZNK7Crackle7PDFFont4nameB5cxx11Ev
libcrackle.so:_ZNK7Crackle7PDFFont5sizesEv
libcrackle.so:_ZNK7Crackle7PDFFont6isBoldEv
libcrackle.so:_ZNK7Crackle7PDFFont7isSerifEv
libcrackle.so:_ZNK7Crackle7PDFFont8isItalicEv
libcrackle.so:_ZNK7Crackle7PDFFonteqERKS0_
libcrackle.so:_ZNK7Crackle7PDFFontltERKS0_
libcrackle.so:_ZNK7Crackle7PDFFontneERKS0_
libcrackle.so:_ZNK7Crackle7PDFPage10pageNumberEv
libcrackle.so:_ZNK7Crackle7PDFPage10renderAreaERKN5Spine11BoundingBoxEdb
libcrackle.so:_ZNK7Crackle7PDFPage10renderAreaERKN5Spine11BoundingBoxEmmb
libcrackle.so:_ZNK7Crackle7PDFPage11boundingBoxEv
libcrackle.so:_ZNK7Crackle7PDFPage21_extractTextAndImagesEv
libcrackle.so:_ZNK7Crackle7PDFPage4textB5cxx11Ev
libcrackle.so:_ZNK7Crackle7PDFPage5fontsEv
libcrackle.so:_ZNK7Crackle7PDFPage6imagesEv
libcrackle.so:_ZNK7Crackle7PDFPage6renderEdb
libcrackle.so:_ZNK7Crackle7PDFPage6renderEmmb
libcrackle.so:_ZNK7Crackle7PDFPage7regionsEv
libcrackle.so:_ZNK7Crackle7PDFPage8mediaBoxEv
libcrackle.so:_ZNK7Crackle7PDFPage8rotationEv
libcrackle.so:new_CrackleDocument
libcrackle.so:new_CrackleDocumentFromBuffer
libgraffiti.so:_Z26qInitResources_tableeditorv
libgraffiti.so:_Z29qCleanupResources_tableeditorv
libgraffiti.so:_ZN8Graffiti11CellPrivateC1Ev
libgraffiti.so:_ZN8Graffiti11CellPrivateC2Ev
libgraffiti.so:_ZN8Graffiti11CellPrivateD1Ev
libgraffiti.so:_ZN8Graffiti11CellPrivateD2Ev
libgraffiti.so:_ZN8Graffiti11GridPrivate11qt_metacallEN11QMetaObject4CallEiPPv
libgraffiti.so:_ZN8Graffiti11GridPrivate11qt_metacastEPKc
libgraffiti.so:_ZN8Graffiti11GridPrivate27onVerticalSectionsDestroyedEP7QObject
libgraffiti.so:_ZN8Graffiti11GridPrivate29onHorizontalSectionsDestroyedEP7QObject
libgraffiti.so:_ZN8Graffiti11GridPrivate31onVerticalSectionsBoundaryAddedEi
libgraffiti.so:_ZN8Graffiti11GridPrivate33onHorizontalSectionsBoundaryAddedEi
libgraffiti.so:_ZN8Graffiti11GridPrivate33onVerticalSectionsBoundaryRemovedEi
libgraffiti.so:_ZN8Graffiti11GridPrivate35onHorizontalSectionsBoundaryRemovedEi
libgraffiti.so:_ZN8Graffiti11GridPrivateC1EPNS_4GridE
libgraffiti.so:_ZN8Graffiti11GridPrivateC2EPNS_4GridE
libgraffiti.so:_ZN8Graffiti11GridPrivateD0Ev
libgraffiti.so:_ZN8Graffiti11GridPrivateD1Ev
libgraffiti.so:_ZN8Graffiti11GridPrivateD2Ev
libgraffiti.so:_ZN8Graffiti11TableWidget11dataChangedEv
libgraffiti.so:_ZN8Graffiti11TableWidget11qt_metacallEN11QMetaObject4CallEiPPv
libgraffiti.so:_ZN8Graffiti11TableWidget11qt_metacastEPKc
libgraffiti.so:_ZN8Graffiti11TableWidget12columnHeaderEv
libgraffiti.so:_ZN8Graffiti11TableWidget12rowIsNumericEi
libgraffiti.so:_ZN8Graffiti11TableWidget12setGraphTypeENS0_9GraphTypeE
libgraffiti.so:_ZN8Graffiti11TableWidget12setRowHeaderEb
libgraffiti.so:_ZN8Graffiti11TableWidget12tableChangedENS0_21DataSeriesOrientationENS0_9GraphTypeEi
libgraffiti.so:_ZN8Graffiti11TableWidget14headerRowCountEv
libgraffiti.so:_ZN8Graffiti11TableWidget15cellTypeChangedE11QModelIndexNS_14GraphTableView10SeriesTypeE
libgraffiti.so:_ZN8Graffiti11TableWidget15columnIsNumericEi
libgraffiti.so:_ZN8Graffiti11TableWidget15setColumnHeaderEb
libgraffiti.so:_ZN8Graffiti11TableWidget16initModelFromXMLEP18QStandardItemModel12QDomDocumentRK7QString
libgraffiti.so:_ZN8Graffiti11TableWidget16initModelFromXMLEP18QStandardItemModelP9QIODeviceRK7QString
libgraffiti.so:_ZN8Graffiti11TableWidget16initModelFromXMLEP18QStandardItemModelRK10QByteArrayRK7QString
libgraffiti.so:_ZN8Graffiti11TableWidget16initModelFromXMLEP18QStandardItemModelRK11QDomElement
libgraffiti.so:_ZN8Graffiti11TableWidget16initModelFromXMLEP18QStandardItemModelRK4QUrlRK7QString
libgraffiti.so:_ZN8Graffiti11TableWidget16initModelFromXMLEP18QStandardItemModelRK7QStringS5_
libgraffiti.so:_ZN8Graffiti11TableWidget16setRowSeriesTypeEiNS_14GraphTableView10SeriesTypeE
libgraffiti.so:_ZN8Graffiti11TableWidget17cellColourChangedE11QModelIndex6QColor
libgraffiti.so:_ZN8Graffiti11TableWidget18cellCheckedChangedE11QModelIndex
libgraffiti.so:_ZN8Graffiti11TableWidget19initModelFromNLMDOME11QDomElementP18QStandardItemModel
libgraffiti.so:_ZN8Graffiti11TableWidget19initModelFromNLMDOME12QDomDocumentRK7QStringP18QStandardItemModel
libgraffiti.so:_ZN8Graffiti11TableWidget19initModelFromNLMXMLE7QStringRKS1_P18QStandardItemModel
libgraffiti.so:_ZN8Graffiti11TableWidget19setColumnSeriesTypeEiNS_14GraphTableView10SeriesTypeE
libgraffiti.so:_ZN8Graffiti11TableWidget21dataSeriesOrientationEv
libgraffiti.so:_ZN8Graffiti11TableWidget22initModelFromCortiDataEP18QStandardItemModel
libgraffiti.so:_ZN8Graffiti11TableWidget23initModelFromNLMXMLDataE7QStringRKS1_P18QStandardItemModel
libgraffiti.so:_ZN8Graffiti11TableWidget23resizeColumnsToContentsEv
libgraffiti.so:_ZN8Graffiti11TableWidget24initModelFromElsevierDOME11QDomElementP18QStandardItemModel
libgraffiti.so:_ZN8Graffiti11TableWidget24initModelFromElsevierDOME12QDomDocumentRK7QStringP18QStandardItemModel
libgraffiti.so:_ZN8Graffiti11TableWidget24setDataSeriesOrientationENS0_21DataSeriesOrientationE
libgraffiti.so:_ZN8Graffiti11TableWidget28initModelFromElsevierXMLDataE7QStringRKS1_P18QStandardItemModel
libgraffiti.so:_ZN8Graffiti11TableWidget7columnsEv
libgraffiti.so:_ZN8Graffiti11TableWidget9graphTypeEv
libgraffiti.so:_ZN8Graffiti11TableWidget9rowHeaderEv
libgraffiti.so:_ZN8Graffiti11TableWidgetC1EP18QStandardItemModel
libgraffiti.so:_ZN8Graffiti11TableWidgetC2EP18QStandardItemModel
libgraffiti.so:_ZN8Graffiti12GraphsWidget10initialiseEv
libgraffiti.so:_ZN8Graffiti12GraphsWidget10wheelEventEP11QWheelEvent
libgraffiti.so:_ZN8Graffiti12GraphsWidget11dataChangedENS_11TableWidget21DataSeriesOrientationENS1_9GraphTypeEi
libgraffiti.so:_ZN8Graffiti12GraphsWidget11eventFilterEP7QObjectP6QEvent
libgraffiti.so:_ZN8Graffiti12GraphsWidget11qt_metacallEN11QMetaObject4CallEiPPv
libgraffiti.so:_ZN8Graffiti12GraphsWidget11qt_metacastEPKc
libgraffiti.so:_ZN8Graffiti12GraphsWidget11resizeEventEP12QResizeEvent
libgraffiti.so:_ZN8Graffiti12GraphsWidget11resizeSceneEv
libgraffiti.so:_ZN8Graffiti12GraphsWidget11setZoomModeENS0_8ZoomModeE
libgraffiti.so:_ZN8Graffiti12GraphsWidget15mousePressEventEP11QMouseEvent
libgraffiti.so:_ZN8Graffiti12GraphsWidget15setLinkTemplateERK7QString
libgraffiti.so:_ZN8Graffiti12GraphsWidget16doubleClickEventEP11QMouseEvent
libgraffiti.so:_ZN8Graffiti12GraphsWidget16xAxisRectChangedE6QRectF
libgraffiti.so:_ZN8Graffiti12GraphsWidget16yAxisRectChangedE6QRectF
libgraffiti.so:_ZN8Graffiti12GraphsWidget17mouseReleaseEventEP11QMouseEvent
libgraffiti.so:_ZN8Graffiti12GraphsWidget7resizedEv
libgraffiti.so:_ZN8Graffiti12GraphsWidget7setZoomEd
libgraffiti.so:_ZN8Graffiti12GraphsWidget8activateE7QString
libgraffiti.so:_ZN8Graffiti12GraphsWidgetC1EP7QWidget6QFlagsIN2Qt10WindowTypeEEP18QStandardItemModel
libgraffiti.so:_ZN8Graffiti12GraphsWidgetC2EP7QWidget6QFlagsIN2Qt10WindowTypeEEP18QStandardItemModel
libgraffiti.so:_ZN8Graffiti12GraphsWidgetD0Ev
libgraffiti.so:_ZN8Graffiti12GraphsWidgetD1Ev
libgraffiti.so:_ZN8Graffiti12GraphsWidgetD2Ev
libgraffiti.so:_ZN8Graffiti13EntryDelegateC1EPNS_11TableWidgetE
libgraffiti.so:_ZN8Graffiti13EntryDelegateC2EPNS_11TableWidgetE
libgraffiti.so:_ZN8Graffiti13HeaderPrivate10mouseMovedEv
libgraffiti.so:_ZN8Graffiti13HeaderPrivate11qt_metacallEN11QMetaObject4CallEiPPv
libgraffiti.so:_ZN8Graffiti13HeaderPrivate11qt_metacastEPKc
libgraffiti.so:_ZN8Graffiti13HeaderPrivate11setSectionsEPNS_8SectionsE
libgraffiti.so:_ZN8Graffiti13HeaderPrivate13cursorChangedEbd
libgraffiti.so:_ZN8Graffiti13HeaderPrivate15onBoundaryAddedEi
libgraffiti.so:_ZN8Graffiti13HeaderPrivate16boundaryForValueEid
libgraffiti.so:_ZN8Graffiti13HeaderPrivate17onBoundaryRemovedEi
libgraffiti.so:_ZN8Graffiti13HeaderPrivate19onBoundariesChangedEv
libgraffiti.so:_ZN8Graffiti13HeaderPrivate20mousePositionChangedERK6QPoint
libgraffiti.so:_ZN8Graffiti13HeaderPrivate7onMergeEv
libgraffiti.so:_ZN8Graffiti13HeaderPrivate7onSplitEv
libgraffiti.so:_ZN8Graffiti13HeaderPrivate9setCursorEbd
libgraffiti.so:_ZN8Graffiti13HeaderPrivateC1EN2Qt11OrientationEPNS_8SectionsEPNS_6HeaderE
libgraffiti.so:_ZN8Graffiti13HeaderPrivateC2EN2Qt11OrientationEPNS_8SectionsEPNS_6HeaderE
libgraffiti.so:_ZN8Graffiti13HeaderPrivateD0Ev
libgraffiti.so:_ZN8Graffiti13HeaderPrivateD1Ev
libgraffiti.so:_ZN8Graffiti13HeaderPrivateD2Ev
libgraffiti.so:_ZN8Graffiti14GraphTableView11cellClickedERK11QModelIndex
libgraffiti.so:_ZN8Graffiti14GraphTableView11dataChangedERK11QModelIndexS3_
libgraffiti.so:_ZN8Graffiti14GraphTableView11dataChangedERK11QModelIndexS3_RK7QVectorIiE
libgraffiti.so:_ZN8Graffiti14GraphTableView11dataChangedEv
libgraffiti.so:_ZN8Graffiti14GraphTableView11qt_metacallEN11QMetaObject4CallEiPPv
libgraffiti.so:_ZN8Graffiti14GraphTableView11qt_metacastEPKc
libgraffiti.so:_ZN8Graffiti14GraphTableView11typeChangedE11QModelIndexNS0_10SeriesTypeE
libgraffiti.so:_ZN8Graffiti14GraphTableView12checkChangedE11QModelIndex
libgraffiti.so:_ZN8Graffiti14GraphTableView13colourChangedE11QModelIndex6QColor
libgraffiti.so:_ZN8Graffiti14GraphTableView15mousePressEventEP11QMouseEvent
libgraffiti.so:_ZN8Graffiti14GraphTableView15setCurrentColorERK6QColor
libgraffiti.so:_ZN8Graffiti14GraphTableViewC1EP7QWidgetPNS_11TableWidgetE
libgraffiti.so:_ZN8Graffiti14GraphTableViewC2EP7QWidgetPNS_11TableWidgetE
libgraffiti.so:_ZN8Graffiti15GridViewPrivate11qt_metacallEN11QMetaObject4CallEiPPv
libgraffiti.so:_ZN8Graffiti15GridViewPrivate11qt_metacastEPKc
libgraffiti.so:_ZN8Graffiti15GridViewPrivate12onAddRowLineEv
libgraffiti.so:_ZN8Graffiti15GridViewPrivate15onAddColumnLineEv
libgraffiti.so:_ZN8Graffiti15GridViewPrivate15onRemoveRowLineEv
libgraffiti.so:_ZN8Graffiti15GridViewPrivate18onRemoveColumnLineEv
libgraffiti.so:_ZN8Graffiti15GridViewPrivate20mousePositionChangedERK6QPoint
libgraffiti.so:_ZN8Graffiti15GridViewPrivate21setObstacleBoundariesEdd
libgraffiti.so:_ZN8Graffiti15GridViewPrivate22onAddRowAndColumnLinesEv
libgraffiti.so:_ZN8Graffiti15GridViewPrivate25onRemoveRowAndColumnLinesEv
libgraffiti.so:_ZN8Graffiti15GridViewPrivate25onVerticalHeaderDestroyedEP7QObject
libgraffiti.so:_ZN8Graffiti15GridViewPrivate27onHorizontalHeaderDestroyedEP7QObject
libgraffiti.so:_ZN8Graffiti15GridViewPrivate27onVerticalHeaderDragUpdatedEv
libgraffiti.so:_ZN8Graffiti15GridViewPrivate27setVerticalObstacleBoundaryEd
libgraffiti.so:_ZN8Graffiti15GridViewPrivate29onHorizontalHeaderDragUpdatedEv
libgraffiti.so:_ZN8Graffiti15GridViewPrivate29onVerticalHeaderCursorChangedEbd
libgraffiti.so:_ZN8Graffiti15GridViewPrivate29onVerticalHeaderDragCompletedEv
libgraffiti.so:_ZN8Graffiti15GridViewPrivate29onVerticalHeaderDragInitiatedEi
libgraffiti.so:_ZN8Graffiti15GridViewPrivate29setHorizontalObstacleBoundaryEd
libgraffiti.so:_ZN8Graffiti15GridViewPrivate31onHorizontalHeaderCursorChangedEbd
libgraffiti.so:_ZN8Graffiti15GridViewPrivate31onHorizontalHeaderDragCompletedEv
libgraffiti.so:_ZN8Graffiti15GridViewPrivate31onHorizontalHeaderDragInitiatedEi
libgraffiti.so:_ZN8Graffiti15GridViewPrivateC1EPNS_8GridViewE
libgraffiti.so:_ZN8Graffiti15GridViewPrivateC2EPNS_8GridViewE
libgraffiti.so:_ZN8Graffiti15GridViewPrivateD0Ev
libgraffiti.so:_ZN8Graffiti15GridViewPrivateD1Ev
libgraffiti.so:_ZN8Graffiti15GridViewPrivateD2Ev
libgraffiti.so:_ZN8Graffiti15SectionsPrivate11qt_metacallEN11QMetaObject4CallEiPPv
libgraffiti.so:_ZN8Graffiti15SectionsPrivate11qt_metacastEPKc
libgraffiti.so:_ZN8Graffiti15SectionsPrivateC1EP7QObject
libgraffiti.so:_ZN8Graffiti15SectionsPrivateC2EP7QObject
libgraffiti.so:_ZN8Graffiti15SectionsPrivateD0Ev
libgraffiti.so:_ZN8Graffiti15SectionsPrivateD1Ev
libgraffiti.so:_ZN8Graffiti15SectionsPrivateD2Ev
libgraffiti.so:_ZN8Graffiti18GraphicsFlipWidget11animateFlipEd
libgraffiti.so:_ZN8Graffiti18GraphicsFlipWidget11qt_metacallEN11QMetaObject4CallEiPPv
libgraffiti.so:_ZN8Graffiti18GraphicsFlipWidget11qt_metacastEPKc
libgraffiti.so:_ZN8Graffiti18GraphicsFlipWidget11regainFocusEv
libgraffiti.so:_ZN8Graffiti18GraphicsFlipWidget13keyPressEventEP9QKeyEvent
libgraffiti.so:_ZN8Graffiti18GraphicsFlipWidget4flipEv
libgraffiti.so:_ZN8Graffiti18GraphicsFlipWidget5paintEP8QPainterPK24QStyleOptionGraphicsItemP7QWidget
libgraffiti.so:_ZN8Graffiti18GraphicsFlipWidget7flippedEv
libgraffiti.so:_ZN8Graffiti18GraphicsFlipWidgetC1EP7QWidgetS2_P13QGraphicsItem
libgraffiti.so:_ZN8Graffiti18GraphicsFlipWidgetC2EP7QWidgetS2_P13QGraphicsItem
libgraffiti.so:_ZN8Graffiti18GraphicsFlipWidgetD0Ev
libgraffiti.so:_ZN8Graffiti18GraphicsFlipWidgetD1Ev
libgraffiti.so:_ZN8Graffiti18GraphicsFlipWidgetD2Ev
libgraffiti.so:_ZN8Graffiti4Axis10initialiseEv
libgraffiti.so:_ZN8Graffiti4Axis10maxChangedEd
libgraffiti.so:_ZN8Graffiti4Axis10minChangedEd
libgraffiti.so:_ZN8Graffiti4Axis11qt_metacallEN11QMetaObject4CallEiPPv
libgraffiti.so:_ZN8Graffiti4Axis11qt_metacastEPKc
libgraffiti.so:_ZN8Graffiti4Axis11rectChangedE6QRectF
libgraffiti.so:_ZN8Graffiti4Axis12rangeChangedEdd
libgraffiti.so:_ZN8Graffiti4Axis12unitsChangedE7QString
libgraffiti.so:_ZN8Graffiti4Axis13legendChangedE7QString
libgraffiti.so:_ZN8Graffiti4Axis14setOrientationENS0_11OrientationE
libgraffiti.so:_ZN8Graffiti4Axis18orientationChangedENS0_11OrientationE
libgraffiti.so:_ZN8Graffiti4Axis6setMaxEd
libgraffiti.so:_ZN8Graffiti4Axis6setMinEd
libgraffiti.so:_ZN8Graffiti4Axis7resolveEd
libgraffiti.so:_ZN8Graffiti4Axis7setRectE6QRectF
libgraffiti.so:_ZN8Graffiti4Axis8setRangeEdd
libgraffiti.so:_ZN8Graffiti4Axis8setUnitsE7QString
libgraffiti.so:_ZN8Graffiti4Axis9setLegendE7QString
libgraffiti.so:_ZN8Graffiti4AxisC1EP7QObject
libgraffiti.so:_ZN8Graffiti4AxisC2EP7QObject
libgraffiti.so:_ZN8Graffiti4AxisD0Ev
libgraffiti.so:_ZN8Graffiti4AxisD1Ev
libgraffiti.so:_ZN8Graffiti4AxisD2Ev
libgraffiti.so:_ZN8Graffiti4Cell10setContentERK8QVariant
libgraffiti.so:_ZN8Graffiti4Cell9setParentERKS0_
libgraffiti.so:_ZN8Graffiti4CellC1ERKNS_12NullCellTypeE
libgraffiti.so:_ZN8Graffiti4CellC1ERKS0_
libgraffiti.so:_ZN8Graffiti4CellC1Ev
libgraffiti.so:_ZN8Graffiti4CellC2ERKNS_12NullCellTypeE
libgraffiti.so:_ZN8Graffiti4CellC2ERKS0_
libgraffiti.so:_ZN8Graffiti4CellC2Ev
libgraffiti.so:_ZN8Graffiti4CellD1Ev
libgraffiti.so:_ZN8Graffiti4CellD2Ev
libgraffiti.so:_ZN8Graffiti4CellaSERKS0_
libgraffiti.so:_ZN8Graffiti4Grid10insertRowsEii
libgraffiti.so:_ZN8Graffiti4Grid10removeRowsEii
libgraffiti.so:_ZN8Graffiti4Grid11qt_metacallEN11QMetaObject4CallEiPPv
libgraffiti.so:_ZN8Graffiti4Grid11qt_metacastEPKc
libgraffiti.so:_ZN8Graffiti4Grid12insertColumnEi
libgraffiti.so:_ZN8Graffiti4Grid12removeColumnEi
libgraffiti.so:_ZN8Graffiti4Grid13insertColumnsEii
libgraffiti.so:_ZN8Graffiti4Grid13removeColumnsEii
libgraffiti.so:_ZN8Graffiti4Grid19setVerticalSectionsEPNS_8SectionsE
libgraffiti.so:_ZN8Graffiti4Grid21setHorizontalSectionsEPNS_8SectionsE
libgraffiti.so:_ZN8Graffiti4Grid6resizeEii
libgraffiti.so:_ZN8Graffiti4Grid9insertRowEi
libgraffiti.so:_ZN8Graffiti4Grid9removeRowEi
libgraffiti.so:_ZN8Graffiti4GridC1EP7QObject
libgraffiti.so:_ZN8Graffiti4GridC1EiiP7QObject
libgraffiti.so:_ZN8Graffiti4GridC2EP7QObject
libgraffiti.so:_ZN8Graffiti4GridC2EiiP7QObject
libgraffiti.so:_ZN8Graffiti4GridD0Ev
libgraffiti.so:_ZN8Graffiti4GridD1Ev
libgraffiti.so:_ZN8Graffiti4GridD2Ev
libgraffiti.so:_ZN8Graffiti4View11qt_metacallEN11QMetaObject4CallEiPPv
libgraffiti.so:_ZN8Graffiti4View11qt_metacastEPKc
libgraffiti.so:_ZN8Graffiti4View11resizeEventEP12QResizeEvent
libgraffiti.so:_ZN8Graffiti4View7resizedEv
libgraffiti.so:_ZN8Graffiti4ViewC1Ev
libgraffiti.so:_ZN8Graffiti4ViewC2Ev
libgraffiti.so:_ZN8Graffiti4ViewD0Ev
libgraffiti.so:_ZN8Graffiti4ViewD1Ev
libgraffiti.so:_ZN8Graffiti4ViewD2Ev
libgraffiti.so:_ZN8Graffiti6Header10enterEventEP6QEvent
libgraffiti.so:_ZN8Graffiti6Header10leaveEventEP6QEvent
libgraffiti.so:_ZN8Graffiti6Header10paintEventEP11QPaintEvent
libgraffiti.so:_ZN8Graffiti6Header11dragUpdatedEv
libgraffiti.so:_ZN8Graffiti6Header11qt_metacallEN11QMetaObject4CallEiPPv
libgraffiti.so:_ZN8Graffiti6Header11qt_metacastEPKc
libgraffiti.so:_ZN8Graffiti6Header11setReversedEb
libgraffiti.so:_ZN8Graffiti6Header11setSectionsEPNS_8SectionsE
libgraffiti.so:_ZN8Graffiti6Header12setGridColorERK6QColor
libgraffiti.so:_ZN8Graffiti6Header13cursorChangedEbd
libgraffiti.so:_ZN8Graffiti6Header13dragCompletedEv
libgraffiti.so:_ZN8Graffiti6Header13dragInitiatedEi
libgraffiti.so:_ZN8Graffiti6Header13setSnapValuesERK7QVectorIdE
libgraffiti.so:_ZN8Graffiti6Header14mouseMoveEventEP11QMouseEvent
libgraffiti.so:_ZN8Graffiti6Header14setCursorColorERK6QColor
libgraffiti.so:_ZN8Graffiti6Header14setCursorValueEd
libgraffiti.so:_ZN8Graffiti6Header14setOrientationEN2Qt11OrientationE
libgraffiti.so:_ZN8Graffiti6Header15mousePressEventEP11QMouseEvent
libgraffiti.so:_ZN8Graffiti6Header15setSnapToGuidesEb
libgraffiti.so:_ZN8Graffiti6Header15setVisibleRangeEdd
libgraffiti.so:_ZN8Graffiti6Header16contextMenuEventEP17QContextMenuEvent
libgraffiti.so:_ZN8Graffiti6Header16setCursorVisibleEb
libgraffiti.so:_ZN8Graffiti6Header17mouseReleaseEventEP11QMouseEvent
libgraffiti.so:_ZN8Graffiti6Header8reversalEv
libgraffiti.so:_ZN8Graffiti6Header8sectionsEv
libgraffiti.so:_ZN8Graffiti6HeaderC1EN2Qt11OrientationEP7QWidget
libgraffiti.so:_ZN8Graffiti6HeaderC1EPNS_8SectionsEN2Qt11OrientationEP7QWidget
libgraffiti.so:_ZN8Graffiti6HeaderC2EN2Qt11OrientationEP7QWidget
libgraffiti.so:_ZN8Graffiti6HeaderC2EPNS_8SectionsEN2Qt11OrientationEP7QWidget
libgraffiti.so:_ZN8Graffiti6HeaderD0Ev
libgraffiti.so:_ZN8Graffiti6HeaderD1Ev
libgraffiti.so:_ZN8Graffiti6HeaderD2Ev
libgraffiti.so:_ZN8Graffiti8GridView10leaveEventEP6QEvent
libgraffiti.so:_ZN8Graffiti8GridView10paintEventEP11QPaintEvent
libgraffiti.so:_ZN8Graffiti8GridView11qt_metacallEN11QMetaObject4CallEiPPv
libgraffiti.so:_ZN8Graffiti8GridView11qt_metacastEPKc
libgraffiti.so:_ZN8Graffiti8GridView11setRotationEi
libgraffiti.so:_ZN8Graffiti8GridView12setGridColorERK6QColor
libgraffiti.so:_ZN8Graffiti8GridView12setObstaclesERK7QVectorI6QRectFE
libgraffiti.so:_ZN8Graffiti8GridView14mouseMoveEventEP11QMouseEvent
libgraffiti.so:_ZN8Graffiti8GridView14setCursorColorERK6QColor
libgraffiti.so:_ZN8Graffiti8GridView15mousePressEventEP11QMouseEvent
libgraffiti.so:_ZN8Graffiti8GridView15setViewportRectERK6QRectF
libgraffiti.so:_ZN8Graffiti8GridView16contextMenuEventEP17QContextMenuEvent
libgraffiti.so:_ZN8Graffiti8GridView17mouseReleaseEventEP11QMouseEvent
libgraffiti.so:_ZN8Graffiti8GridView17setVerticalHeaderEPNS_6HeaderE
libgraffiti.so:_ZN8Graffiti8GridView19setHorizontalHeaderEPNS_6HeaderE
libgraffiti.so:_ZN8Graffiti8GridView4gridEv
libgraffiti.so:_ZN8Graffiti8GridViewC1EP7QWidget
libgraffiti.so:_ZN8Graffiti8GridViewC2EP7QWidget
libgraffiti.so:_ZN8Graffiti8GridViewD0Ev
libgraffiti.so:_ZN8Graffiti8GridViewD1Ev
libgraffiti.so:_ZN8Graffiti8GridViewD2Ev
libgraffiti.so:_ZN8Graffiti8NullCellEv
libgraffiti.so:_ZN8Graffiti8Sections10boundaryAtEi
libgraffiti.so:_ZN8Graffiti8Sections11addBoundaryEd
libgraffiti.so:_ZN8Graffiti8Sections11qt_metacallEN11QMetaObject4CallEiPPv
libgraffiti.so:_ZN8Graffiti8Sections11qt_metacastEPKc
libgraffiti.so:_ZN8Graffiti8Sections12moveBoundaryEid
libgraffiti.so:_ZN8Graffiti8Sections13boundaryAddedEi
libgraffiti.so:_ZN8Graffiti8Sections13removeSectionEi
libgraffiti.so:_ZN8Graffiti8Sections13resizeSectionEid
libgraffiti.so:_ZN8Graffiti8Sections13setBoundariesERK5QListIdE
libgraffiti.so:_ZN8Graffiti8Sections14removeBoundaryEi
libgraffiti.so:_ZN8Graffiti8Sections15boundaryRemovedEi
libgraffiti.so:_ZN8Graffiti8Sections17boundariesChangedEv
libgraffiti.so:_ZN8Graffiti8Sections5resetEd
libgraffiti.so:_ZN8Graffiti8Sections5resetEdd
libgraffiti.so:_ZN8Graffiti8Sections7unsplitEii
libgraffiti.so:_ZN8Graffiti8SectionsC1EP7QObject
libgraffiti.so:_ZN8Graffiti8SectionsC1EdP7QObject
libgraffiti.so:_ZN8Graffiti8SectionsC1EddP7QObject
libgraffiti.so:_ZN8Graffiti8SectionsC2EP7QObject
libgraffiti.so:_ZN8Graffiti8SectionsC2EdP7QObject
libgraffiti.so:_ZN8Graffiti8SectionsC2EddP7QObject
libgraffiti.so:_ZN8Graffiti8SectionsD0Ev
libgraffiti.so:_ZN8Graffiti8SectionsD1Ev
libgraffiti.so:_ZN8Graffiti8SectionsD2Ev
libgraffiti.so:_ZNK8Graffiti11GridPrivate10metaObjectEv
libgraffiti.so:_ZNK8Graffiti11TableWidget10metaObjectEv
libgraffiti.so:_ZNK8Graffiti12GraphsWidget10metaObjectEv
libgraffiti.so:_ZNK8Graffiti12GraphsWidget4zoomEv
libgraffiti.so:_ZNK8Graffiti12GraphsWidget8zoomModeEv
libgraffiti.so:_ZNK8Graffiti13EntryDelegate5paintEP8QPainterRK20QStyleOptionViewItemRK11QModelIndex
libgraffiti.so:_ZNK8Graffiti13HeaderPrivate10metaObjectEv
libgraffiti.so:_ZNK8Graffiti13HeaderPrivate11isSnappableEv
libgraffiti.so:_ZNK8Graffiti13HeaderPrivate11visibleSizeEv
libgraffiti.so:_ZNK8Graffiti13HeaderPrivate13normalisedPosERK6QPoint
libgraffiti.so:_ZNK8Graffiti13HeaderPrivate17translateToWidgetEd
libgraffiti.so:_ZNK8Graffiti13HeaderPrivate19translateFromWidgetEi
libgraffiti.so:_ZNK8Graffiti13HeaderPrivate6lengthEv
libgraffiti.so:_ZNK8Graffiti13HeaderPrivate7breadthEv
libgraffiti.so:_ZNK8Graffiti14GraphTableView10metaObjectEv
libgraffiti.so:_ZNK8Graffiti15GridViewPrivate10metaObjectEv
libgraffiti.so:_ZNK8Graffiti15GridViewPrivate18visibleRectForCellEii
libgraffiti.so:_ZNK8Graffiti15GridViewPrivate25translateToWidgetVerticalEd
libgraffiti.so:_ZNK8Graffiti15GridViewPrivate27translateFromWidgetVerticalEi
libgraffiti.so:_ZNK8Graffiti15GridViewPrivate27translateToWidgetHorizontalEd
libgraffiti.so:_ZNK8Graffiti15GridViewPrivate29translateFromWidgetHorizontalEi
libgraffiti.so:_ZNK8Graffiti15SectionsPrivate10metaObjectEv
libgraffiti.so:_ZNK8Graffiti18GraphicsFlipWidget10backWidgetEv
libgraffiti.so:_ZNK8Graffiti18GraphicsFlipWidget10metaObjectEv
libgraffiti.so:_ZNK8Graffiti18GraphicsFlipWidget11frontWidgetEv
libgraffiti.so:_ZNK8Graffiti18GraphicsFlipWidget12boundingRectEv
libgraffiti.so:_ZNK8Graffiti18GraphicsFlipWidget12hiddenWidgetEv
libgraffiti.so:_ZNK8Graffiti18GraphicsFlipWidget13visibleWidgetEv
libgraffiti.so:_ZNK8Graffiti18GraphicsFlipWidget15transitionPointEv
libgraffiti.so:_ZNK8Graffiti18GraphicsFlipWidget17hiddenProxyWidgetEv
libgraffiti.so:_ZNK8Graffiti18GraphicsFlipWidget18visibleProxyWidgetEv
libgraffiti.so:_ZNK8Graffiti18GraphicsFlipWidget9isFlippedEv
libgraffiti.so:_ZNK8Graffiti4Axis10metaObjectEv
libgraffiti.so:_ZNK8Graffiti4Axis11orientationEv
libgraffiti.so:_ZNK8Graffiti4Axis3maxEv
libgraffiti.so:_ZNK8Graffiti4Axis3minEv
libgraffiti.so:_ZNK8Graffiti4Axis4rectEv
libgraffiti.so:_ZNK8Graffiti4Axis5unitsEv
libgraffiti.so:_ZNK8Graffiti4Axis6legendEv
libgraffiti.so:_ZNK8Graffiti4Cell10columnSpanEv
libgraffiti.so:_ZNK8Graffiti4Cell6isNullEv
libgraffiti.so:_ZNK8Graffiti4Cell6parentEv
libgraffiti.so:_ZNK8Graffiti4Cell7contentEv
libgraffiti.so:_ZNK8Graffiti4Cell7rowSpanEv
libgraffiti.so:_ZNK8Graffiti4Grid10metaObjectEv
libgraffiti.so:_ZNK8Graffiti4Grid11columnCountEv
libgraffiti.so:_ZNK8Graffiti4Grid2atEii
libgraffiti.so:_ZNK8Graffiti4Grid8rowCountEv
libgraffiti.so:_ZNK8Graffiti4View10metaObjectEv
libgraffiti.so:_ZNK8Graffiti6Header10metaObjectEv
libgraffiti.so:_ZNK8Graffiti6Header10snapValuesEv
libgraffiti.so:_ZNK8Graffiti6Header11cursorColorEv
libgraffiti.so:_ZNK8Graffiti6Header11cursorValueEv
libgraffiti.so:_ZNK8Graffiti6Header11orientationEv
libgraffiti.so:_ZNK8Graffiti6Header11visibleFromEv
libgraffiti.so:_ZNK8Graffiti6Header13cursorVisibleEv
libgraffiti.so:_ZNK8Graffiti6Header17translateToWidgetEd
libgraffiti.so:_ZNK8Graffiti6Header19translateFromWidgetEi
libgraffiti.so:_ZNK8Graffiti6Header8reversedEv
libgraffiti.so:_ZNK8Graffiti6Header9gridColorEv
libgraffiti.so:_ZNK8Graffiti6Header9visibleToEv
libgraffiti.so:_ZNK8Graffiti8GridView10metaObjectEv
libgraffiti.so:_ZNK8Graffiti8GridView11cursorColorEv
libgraffiti.so:_ZNK8Graffiti8GridView9gridColorEv
libgraffiti.so:_ZNK8Graffiti8GridView9obstaclesEv
libgraffiti.so:_ZNK8Graffiti8Sections10boundariesEv
libgraffiti.so:_ZNK8Graffiti8Sections10metaObjectEv
libgraffiti.so:_ZNK8Graffiti8Sections12lastBoundaryEv
libgraffiti.so:_ZNK8Graffiti8Sections13firstBoundaryEv
libgraffiti.so:_ZNK8Graffiti8Sections4findEd
libgraffiti.so:_ZNK8Graffiti8Sections4nextEd
libgraffiti.so:_ZNK8Graffiti8Sections4sizeEv
libgraffiti.so:_ZNK8Graffiti8Sections5countEv
libgraffiti.so:_ZNK8Graffiti8Sections8previousEd
libgraffiti.so:_ZNK8Graffiti8Sections9sectionAtEi
libgraffiti.so:_ZThn16_N8Graffiti12GraphsWidgetD0Ev
libgraffiti.so:_ZThn16_N8Graffiti12GraphsWidgetD1Ev
libgraffiti.so:_ZThn16_N8Graffiti18GraphicsFlipWidget13keyPressEventEP9QKeyEvent
libgraffiti.so:_ZThn16_N8Graffiti18GraphicsFlipWidget5paintEP8QPainterPK24QStyleOptionGraphicsItemP7QWidget
libgraffiti.so:_ZThn16_N8Graffiti18GraphicsFlipWidgetD0Ev
libgraffiti.so:_ZThn16_N8Graffiti18GraphicsFlipWidgetD1Ev
libgraffiti.so:_ZThn16_N8Graffiti4ViewD0Ev
libgraffiti.so:_ZThn16_N8Graffiti4ViewD1Ev
libgraffiti.so:_ZThn16_N8Graffiti6HeaderD0Ev
libgraffiti.so:_ZThn16_N8Graffiti6HeaderD1Ev
libgraffiti.so:_ZThn16_N8Graffiti8GridViewD0Ev
libgraffiti.so:_ZThn16_N8Graffiti8GridViewD1Ev
libgraffiti.so:_ZThn16_NK8Graffiti18GraphicsFlipWidget12boundingRectEv
libpapyro.so:_Z21qInitResources_papyrov
libpapyro.so:_Z24qCleanupResources_papyrov
libpapyro.so:_Z24qInitResources_athenaeumv
libpapyro.so:_Z24qInitResources_cslenginev
libpapyro.so:_Z27qCleanupResources_athenaeumv
libpapyro.so:_Z27qCleanupResources_cslenginev
libpapyro.so:_Z27qInitResources_papyro_pagesv
libpapyro.so:_Z30qCleanupResources_papyro_pagesv
libpapyro.so:_ZN6Papyro10Dispatcher10initialiseEv
libpapyro.so:_ZN6Papyro10Dispatcher10setLookupsERK5QListIN5boost10shared_ptrINS_9AnnotatorEEEE
libpapyro.so:_ZN6Papyro10Dispatcher11qt_metacallEN11QMetaObject4CallEiPPv
libpapyro.so:_ZN6Papyro10Dispatcher11qt_metacastEPKc
libpapyro.so:_ZN6Papyro10Dispatcher13setDecoratorsERK5QListIPNS_9DecoratorEE
libpapyro.so:_ZN6Papyro10Dispatcher15annotationFoundEN5boost10shared_ptrIN5Spine10AnnotationEEE
libpapyro.so:_ZN6Papyro10Dispatcher17onAnnotationFoundEN5boost10shared_ptrIN5Spine10AnnotationEEE
libpapyro.so:_ZN6Papyro10Dispatcher19setDefaultSessionIdERK7QString
libpapyro.so:_ZN6Papyro10Dispatcher5clearEv
libpapyro.so:_ZN6Papyro10Dispatcher7clearedEv
libpapyro.so:_ZN6Papyro10Dispatcher7startedEv
libpapyro.so:_ZN6Papyro10Dispatcher8finishedEv
libpapyro.so:_ZN6Papyro10Dispatcher9lookupOLDEN5boost10shared_ptrIN5Spine8DocumentEEERK11QStringListb
libpapyro.so:_ZN6Papyro10Dispatcher9lookupOLDEN5boost10shared_ptrIN5Spine8DocumentEEERK7QStringb
libpapyro.so:_ZN6Papyro10DispatcherC1EP7QObject
libpapyro.so:_ZN6Papyro10DispatcherC2EP7QObject
libpapyro.so:_ZN6Papyro10DispatcherD0Ev
libpapyro.so:_ZN6Papyro10DispatcherD1Ev
libpapyro.so:_ZN6Papyro10DispatcherD2Ev
libpapyro.so:_ZN6Papyro10ResultItem11qt_metacallEN11QMetaObject4CallEiPPv
libpapyro.so:_ZN6Papyro10ResultItem11qt_metacastEPKc
libpapyro.so:_ZN6Papyro10ResultItem12stateChangedENS0_5StateE
libpapyro.so:_ZN6Papyro10ResultItem14contentChangedERK7QString
libpapyro.so:_ZN6Papyro10ResultItem15generateContentEv
libpapyro.so:_ZN6Papyro10ResultItemC2ERK4QMapI7QString8QVariantE
libpapyro.so:_ZN6Papyro10ResultItemD0Ev
libpapyro.so:_ZN6Papyro10ResultItemD1Ev
libpapyro.so:_ZN6Papyro10ResultItemD2Ev
libpapyro.so:_ZN6Papyro11CommentDataC1EN5boost10shared_ptrIN5Spine10AnnotationEEE
libpapyro.so:_ZN6Papyro11CommentDataC2EN5boost10shared_ptrIN5Spine10AnnotationEEE
libpapyro.so:_ZN6Papyro11CommentDataD0Ev
libpapyro.so:_ZN6Papyro11CommentDataD1Ev
libpapyro.so:_ZN6Papyro11CommentDataD2Ev
libpapyro.so:_ZN6Papyro11ResultsView11linkClickedERK4QUrlRK7QString
libpapyro.so:_ZN6Papyro11ResultsView11qt_metacallEN11QMetaObject4CallEiPPv
libpapyro.so:_ZN6Papyro11ResultsView11qt_metacastEPKc
libpapyro.so:_ZN6Papyro11ResultsView12termExploredERK7QString
libpapyro.so:_ZN6Papyro11ResultsView14runningChangedEb
libpapyro.so:_ZN6Papyro11ResultsView14setExploreTermERK7QStringb
libpapyro.so:_ZN6Papyro11ResultsView15setExploreTermsERK11QStringListb
libpapyro.so:_ZN6Papyro11ResultsView18citationsActivatedERK5QListI8QVariantERK7QString
libpapyro.so:_ZN6Papyro11ResultsView5clearEv
libpapyro.so:_ZN6Papyro11ResultsView9addResultEPNS_10ResultItemE
libpapyro.so:_ZN6Papyro11ResultsViewC1ERK7QStringP7QWidget
libpapyro.so:_ZN6Papyro11ResultsViewC2ERK7QStringP7QWidget
libpapyro.so:_ZN6Papyro12DocumentView10paintEventEP11QPaintEvent
libpapyro.so:_ZN6Papyro12DocumentView10selectNoneEv
libpapyro.so:_ZN6Papyro12DocumentView10wheelEventEP11QWheelEvent
libpapyro.so:_ZN6Papyro12DocumentView11clearSearchEv
libpapyro.so:_ZN6Papyro12DocumentView11qt_metacallEN11QMetaObject4CallEiPPv
libpapyro.so:_ZN6Papyro12DocumentView11qt_metacastEPKc
libpapyro.so:_ZN6Papyro12DocumentView11resizeEventEP12QResizeEvent
libpapyro.so:_ZN6Papyro12DocumentView11setDocumentEN5boost10shared_ptrIN5Spine8DocumentEEEiRK6QRectF
libpapyro.so:_ZN6Papyro12DocumentView11setExposingEb
libpapyro.so:_ZN6Papyro12DocumentView11setPageFlowENS0_8PageFlowE
libpapyro.so:_ZN6Papyro12DocumentView11setPageModeENS0_8PageModeE
libpapyro.so:_ZN6Papyro12DocumentView11setZoomModeENS0_8ZoomModeE
libpapyro.so:_ZN6Papyro12DocumentView11zoomChangedEv
libpapyro.so:_ZN6Papyro12DocumentView12focusChangedEPNS_8PageViewERK7QPointF
libpapyro.so:_ZN6Papyro12DocumentView12showLastPageEv
libpapyro.so:_ZN6Papyro12DocumentView12showNextPageEv
libpapyro.so:_ZN6Papyro12DocumentView12urlRequestedERK4QUrlRK7QString
libpapyro.so:_ZN6Papyro12DocumentView13focusOutEventEP11QFocusEvent
libpapyro.so:_ZN6Papyro12DocumentView13showFirstPageEv
libpapyro.so:_ZN6Papyro12DocumentView14hideSpotlightsEv
libpapyro.so:_ZN6Papyro12DocumentView14publishChangesEv
libpapyro.so:_ZN6Papyro12DocumentView14setBindingModeENS0_6ParityE
libpapyro.so:_ZN6Papyro12DocumentView14showAnnotationEN5boost10shared_ptrIN5Spine10AnnotationEEE
libpapyro.so:_ZN6Papyro12DocumentView15pageFlowChangedEv
libpapyro.so:_ZN6Papyro12DocumentView15pageModeChangedEv
libpapyro.so:_ZN6Papyro12DocumentView15zoomModeChangedEv
libpapyro.so:_ZN6Papyro12DocumentView16contextMenuEventEP17QContextMenuEvent
libpapyro.so:_ZN6Papyro12DocumentView16copySelectedTextEv
libpapyro.so:_ZN6Papyro12DocumentView16exploreSelectionEv
libpapyro.so:_ZN6Papyro12DocumentView16pageFocusChangedEm
libpapyro.so:_ZN6Papyro12DocumentView16selectionChangedEN5Spine13TextSelectionE
libpapyro.so:_ZN6Papyro12DocumentView16showPreviousPageEv
libpapyro.so:_ZN6Papyro12DocumentView16spotlightsHiddenEv
libpapyro.so:_ZN6Papyro12DocumentView17setAutoScrollBarsEb
libpapyro.so:_ZN6Papyro12DocumentView17setHighlightColorERK6QColor
libpapyro.so:_ZN6Papyro12DocumentView17updateAnnotationsEv
libpapyro.so:_ZN6Papyro12DocumentView18bindingModeChangedEv
libpapyro.so:_ZN6Papyro12DocumentView18focusNextSpotlightEv
libpapyro.so:_ZN6Papyro12DocumentView18highlightSelectionEv
libpapyro.so:_ZN6Papyro12DocumentView18setInteractionModeENS0_15InteractionModeE
libpapyro.so:_ZN6Papyro12DocumentView20annotationsActivatedESt3setIN5boost10shared_ptrIN5Spine10AnnotationEEESt4lessIS6_ESaIS6_EERK4QMapI7QString8QVariantE
libpapyro.so:_ZN6Papyro12DocumentView20setPageFlowDirectionENS0_17PageFlowDirectionE
libpapyro.so:_ZN6Papyro12DocumentView22contextMenuAboutToShowEP5QMenuN5boost10shared_ptrIN5Spine8DocumentEEENS4_INS5_6CursorEEE
libpapyro.so:_ZN6Papyro12DocumentView22focusPreviousSpotlightEv
libpapyro.so:_ZN6Papyro12DocumentView24pageFlowDirectionChangedEv
libpapyro.so:_ZN6Papyro12DocumentView5clearEv
libpapyro.so:_ZN6Papyro12DocumentView6searchERK7QStringi
libpapyro.so:_ZN6Papyro12DocumentView6zoomInEd
libpapyro.so:_ZN6Papyro12DocumentView7setZoomEd
libpapyro.so:_ZN6Papyro12DocumentView7setZoomEi
libpapyro.so:_ZN6Papyro12DocumentView7zoomOutEd
libpapyro.so:_ZN6Papyro12DocumentView8showPageEN5boost10shared_ptrIN5Spine10TextExtentEEE
libpapyro.so:_ZN6Papyro12DocumentView8showPageERK4QMapI7QString8QVariantE
libpapyro.so:_ZN6Papyro12DocumentView8showPageEiRK6QRectF
libpapyro.so:_ZN6Papyro12DocumentView9loadStateERKNS0_11OptionStateE
libpapyro.so:_ZN6Papyro12DocumentViewC1EN5boost10shared_ptrIN5Spine8DocumentEEEP7QWidget
libpapyro.so:_ZN6Papyro12DocumentViewC1EP7QWidget
libpapyro.so:_ZN6Papyro12DocumentViewC2EN5boost10shared_ptrIN5Spine8DocumentEEEP7QWidget
libpapyro.so:_ZN6Papyro12DocumentViewC2EP7QWidget
libpapyro.so:_ZN6Papyro12DocumentViewD0Ev
libpapyro.so:_ZN6Papyro12DocumentViewD1Ev
libpapyro.so:_ZN6Papyro12DocumentViewD2Ev
libpapyro.so:_ZN6Papyro12EmbeddedPane11qt_metacallEN11QMetaObject4CallEiPPv
libpapyro.so:_ZN6Papyro12EmbeddedPane11qt_metacastEPKc
libpapyro.so:_ZN6Papyro12EmbeddedPane12skipDownloadEv
libpapyro.so:_ZN6Papyro12EmbeddedPane13parseDownloadEP13QNetworkReply
libpapyro.so:_ZN6Papyro12EmbeddedPane13startDownloadERK4QUrl
libpapyro.so:_ZN6Papyro12EmbeddedPane15onStatusChangedENS0_6StatusE
libpapyro.so:_ZN6Papyro12EmbeddedPane19setInteractionFlagsE6QFlagsINS0_15InteractionFlagEE
libpapyro.so:_ZN6Papyro12EmbeddedPane4loadEv
libpapyro.so:_ZN6Papyro12EmbeddedPane7setDataERK8QVariant
libpapyro.so:_ZN6Papyro12EmbeddedPane8downloadEv
libpapyro.so:_ZN6Papyro12EmbeddedPane9showEventEP10QShowEvent
libpapyro.so:_ZN6Papyro12EmbeddedPaneC1E6QFlagsINS0_15InteractionFlagEEP7QWidget
libpapyro.so:_ZN6Papyro12EmbeddedPaneC2E6QFlagsINS0_15InteractionFlagEEP7QWidget
libpapyro.so:_ZN6Papyro12PagerPrivate11qt_metacallEN11QMetaObject4CallEiPPv
libpapyro.so:_ZN6Papyro12PagerPrivate11qt_metacastEPKc
libpapyro.so:_ZN6Papyro12PagerPrivate15updateScrollBarEv
libpapyro.so:_ZN6Papyro12PagerPrivate18clampedBoundingBoxEb
libpapyro.so:_ZN6Papyro12PagerPrivate23onScrollBarValueChangedEi
libpapyro.so:_ZN6Papyro12PagerPrivate4lastEb
libpapyro.so:_ZN6Papyro12PagerPrivate4nextEib
libpapyro.so:_ZN6Papyro12PagerPrivate5firstEb
libpapyro.so:_ZN6Papyro12PagerPrivate5focusEib
libpapyro.so:_ZN6Papyro12PagerPrivate8previousEib
libpapyro.so:_ZN6Papyro12PagerPrivateC1EP7QObjectPNS_5PagerEN2Qt11OrientationE
libpapyro.so:_ZN6Papyro12PagerPrivateC2EP7QObjectPNS_5PagerEN2Qt11OrientationE
libpapyro.so:_ZN6Papyro12PapyroWindow10closeEventEP11QCloseEvent
libpapyro.so:_ZN6Papyro12PapyroWindow10requestUrlERK4QUrlRK7QString
libpapyro.so:_ZN6Papyro12PapyroWindow10unsetModelEv
libpapyro.so:_ZN6Papyro12PapyroWindow11qt_metacallEN11QMetaObject4CallEiPPv
libpapyro.so:_ZN6Papyro12PapyroWindow11qt_metacastEPKc
libpapyro.so:_ZN6Papyro12PapyroWindow11raiseWindowEv
libpapyro.so:_ZN6Papyro12PapyroWindow11resizeEventEP12QResizeEvent
libpapyro.so:_ZN6Papyro12PapyroWindow12searchRemoteERK7QString
libpapyro.so:_ZN6Papyro12PapyroWindow13currentWindowEv
libpapyro.so:_ZN6Papyro12PapyroWindow13dragMoveEventEP14QDragMoveEvent
libpapyro.so:_ZN6Papyro12PapyroWindow13keyPressEventEP9QKeyEvent
libpapyro.so:_ZN6Papyro12PapyroWindow13saveToLibraryEv
libpapyro.so:_ZN6Papyro12PapyroWindow14dragEnterEventEP15QDragEnterEvent
libpapyro.so:_ZN6Papyro12PapyroWindow14dragLeaveEventEP15QDragLeaveEvent
libpapyro.so:_ZN6Papyro12PapyroWindow15keyReleaseEventEP9QKeyEvent
libpapyro.so:_ZN6Papyro12PapyroWindow17currentTabChangedEv
libpapyro.so:_ZN6Papyro12PapyroWindow21openFileFromClipboardEv
libpapyro.so:_ZN6Papyro12PapyroWindow4openE5QListIN5boost10shared_ptrIN9Athenaeum8CitationEEEENS0_10OpenTargetERK4QMapI7QString8QVariantE
libpapyro.so:_ZN6Papyro12PapyroWindow4openEN5boost10shared_ptrIN5Spine8DocumentEEENS0_10OpenTargetERK4QMapI7QString8QVariantE
libpapyro.so:_ZN6Papyro12PapyroWindow4openEN5boost10shared_ptrIN9Athenaeum8CitationEEENS0_10OpenTargetERK4QMapI7QString8QVariantE
libpapyro.so:_ZN6Papyro12PapyroWindow4openEP9QIODeviceNS0_10OpenTargetERK4QMapI7QString8QVariantE
libpapyro.so:_ZN6Papyro12PapyroWindow4openERK4QMapI7QString8QVariantENS0_10OpenTargetES6_
libpapyro.so:_ZN6Papyro12PapyroWindow4openERK4QUrlNS0_10OpenTargetERK4QMapI7QString8QVariantE
libpapyro.so:_ZN6Papyro12PapyroWindow4openERK5QListI8QVariantENS0_10OpenTargetERK4QMapI7QStringS2_E
libpapyro.so:_ZN6Papyro12PapyroWindow4openERK7QStringNS0_10OpenTargetERK4QMapIS1_8QVariantE
libpapyro.so:_ZN6Papyro12PapyroWindow5clearEv
libpapyro.so:_ZN6Papyro12PapyroWindow7openUrlEv
libpapyro.so:_ZN6Papyro12PapyroWindow8closeAllEv
libpapyro.so:_ZN6Papyro12PapyroWindow8modelSetEv
libpapyro.so:_ZN6Papyro12PapyroWindow8openFileEv
libpapyro.so:_ZN6Papyro12PapyroWindow8raiseTabEi
libpapyro.so:_ZN6Papyro12PapyroWindow8saveFileEv
libpapyro.so:_ZN6Papyro12PapyroWindow8showHelpEv
libpapyro.so:_ZN6Papyro12PapyroWindow9dropEventEP10QDropEvent
libpapyro.so:_ZN6Papyro12PapyroWindow9newWindowEv
libpapyro.so:_ZN6Papyro12PapyroWindow9showAboutEv
libpapyro.so:_ZN6Papyro12PapyroWindow9showEventEP10QShowEvent
libpapyro.so:_ZN6Papyro12PapyroWindowC1EP7QWidget6QFlagsIN2Qt10WindowTypeEE
libpapyro.so:_ZN6Papyro12PapyroWindowC1EPNS_9PapyroTabEP7QWidget6QFlagsIN2Qt10WindowTypeEE
libpapyro.so:_ZN6Papyro12PapyroWindowC2EP7QWidget6QFlagsIN2Qt10WindowTypeEE
libpapyro.so:_ZN6Papyro12PapyroWindowC2EPNS_9PapyroTabEP7QWidget6QFlagsIN2Qt10WindowTypeEE
libpapyro.so:_ZN6Papyro12PapyroWindowD0Ev
libpapyro.so:_ZN6Papyro12PapyroWindowD1Ev
libpapyro.so:_ZN6Papyro12PapyroWindowD2Ev
libpapyro.so:_ZN6Papyro12nearAsDamnItEdi
libpapyro.so:_ZN6Papyro13CitationPanel10requestUrlERK4QUrlRK7QString
libpapyro.so:_ZN6Papyro13CitationPanel11eventFilterEP7QObjectP6QEvent
libpapyro.so:_ZN6Papyro13CitationPanel11qt_metacallEN11QMetaObject4CallEiPPv
libpapyro.so:_ZN6Papyro13CitationPanel11qt_metacastEPKc
libpapyro.so:_ZN6Papyro13CitationPanel13onLinkClickedERK7QString
libpapyro.so:_ZN6Papyro13CitationPanel27onResolverRunnableCompletedEN5boost10shared_ptrIN9Athenaeum8CitationEEE
libpapyro.so:_ZN6Papyro13CitationPanel6addPdfE7QStringS1_
libpapyro.so:_ZN6Papyro13CitationPanel7addLinkE7QStringS1_
libpapyro.so:_ZN6Papyro13CitationPanelC1EN5boost10shared_ptrIN5Spine10AnnotationEEE
libpapyro.so:_ZN6Papyro13CitationPanelC2EN5boost10shared_ptrIN5Spine10AnnotationEEE
libpapyro.so:_ZN6Papyro13CitationPopup10requestUrlERK4QUrlRK7QString
libpapyro.so:_ZN6Papyro13CitationPopup11addCitationEN5boost10shared_ptrIN5Spine10AnnotationEEE
libpapyro.so:_ZN6Papyro13CitationPopup11qt_metacallEN11QMetaObject4CallEiPPv
libpapyro.so:_ZN6Papyro13CitationPopup11qt_metacastEPKc
libpapyro.so:_ZN6Papyro13CitationPopupC1EP7QWidget
libpapyro.so:_ZN6Papyro13CitationPopupC2EP7QWidget
libpapyro.so:_ZN6Papyro13CitationPopupD0Ev
libpapyro.so:_ZN6Papyro13CitationPopupD1Ev
libpapyro.so:_ZN6Papyro13CitationPopupD2Ev
libpapyro.so:_ZN6Papyro13DocumentProxy11qt_metacallEN11QMetaObject4CallEiPPv
libpapyro.so:_ZN6Papyro13DocumentProxy11qt_metacastEPKc
libpapyro.so:_ZN6Papyro13DocumentProxy11setDocumentEN5boost10shared_ptrIN5Spine8DocumentEEE
libpapyro.so:_ZN6Papyro13DocumentProxy15documentChangedEv
libpapyro.so:_ZN6Papyro13DocumentProxy18annotationsChangedERKNSt7__cxx1112basic_stringIcSt11char_traitsIcESaIcEEERKSt3setIN5boost10shared_ptrIN5Spine10AnnotationEEESt4lessISE_ESaISE_EEb
libpapyro.so:_ZN6Papyro13DocumentProxy20areaSelectionChangedERKNSt7__cxx1112basic_stringIcSt11char_traitsIcESaIcEEERKSt3setIN5Spine4AreaESt4lessISB_ESaISB_EEb
libpapyro.so:_ZN6Papyro13DocumentProxy20textSelectionChangedERKNSt7__cxx1112basic_stringIcSt11char_traitsIcESaIcEEERKSt3setIN5boost10shared_ptrIN5Spine10TextExtentEEENSC_13ExtentCompareISD_EESaISE_EEb
libpapyro.so:_ZN6Papyro13DocumentProxyC1EP7QObject
libpapyro.so:_ZN6Papyro13DocumentProxyC2EP7QObject
libpapyro.so:_ZN6Papyro13DocumentProxyD0Ev
libpapyro.so:_ZN6Papyro13DocumentProxyD1Ev
libpapyro.so:_ZN6Papyro13DocumentProxyD2Ev
libpapyro.so:_ZN6Papyro13EmbeddedFrame10enterEventEP6QEvent
libpapyro.so:_ZN6Papyro13EmbeddedFrame10launchPaneEi
libpapyro.so:_ZN6Papyro13EmbeddedFrame10leaveEventEP6QEvent
libpapyro.so:_ZN6Papyro13EmbeddedFrame10paintEventEP11QPaintEvent
libpapyro.so:_ZN6Papyro13EmbeddedFrame11qt_metacallEN11QMetaObject4CallEiPPv
libpapyro.so:_ZN6Papyro13EmbeddedFrame11qt_metacastEPKc
libpapyro.so:_ZN6Papyro13EmbeddedFrame11resizeEventEP12QResizeEvent
libpapyro.so:_ZN6Papyro13EmbeddedFrame12hideControlsEv
libpapyro.so:_ZN6Papyro13EmbeddedFrame12showControlsEi
libpapyro.so:_ZN6Papyro13EmbeddedFrame13onPlayClickedEv
libpapyro.so:_ZN6Papyro13EmbeddedFrame14onCloseClickedEv
libpapyro.so:_ZN6Papyro13EmbeddedFrame14onGraphClickedEv
libpapyro.so:_ZN6Papyro13EmbeddedFrame15onLaunchClickedEv
libpapyro.so:_ZN6Papyro13EmbeddedFrame16onMagnifyClickedEv
libpapyro.so:_ZN6Papyro13EmbeddedFrame17mouseReleaseEventEP11QMouseEvent
libpapyro.so:_ZN6Papyro13EmbeddedFrame4flipEv
libpapyro.so:_ZN6Papyro13EmbeddedFrame5probeEN5boost10shared_ptrIN5Spine10AnnotationEEE
libpapyro.so:_ZN6Papyro13EmbeddedFrame5probeEN5boost10shared_ptrIN5Spine10AnnotationEEERK6QRectFP7QWidget
libpapyro.so:_ZN6Papyro13EmbeddedFrame6remaskEv
libpapyro.so:_ZN6Papyro13EmbeddedFrameC1EN5boost10shared_ptrIN5Spine10AnnotationEEERK6QRectFP7QWidget
libpapyro.so:_ZN6Papyro13EmbeddedFrameC2EN5boost10shared_ptrIN5Spine10AnnotationEEERK6QRectFP7QWidget
libpapyro.so:_ZN6Papyro13EmbeddedFrameD0Ev
libpapyro.so:_ZN6Papyro13EmbeddedFrameD1Ev
libpapyro.so:_ZN6Papyro13EmbeddedFrameD2Ev
libpapyro.so:_ZN6Papyro13PrinterThread11qt_metacallEN11QMetaObject4CallEiPPv
libpapyro.so:_ZN6Papyro13PrinterThread11qt_metacastEPKc
libpapyro.so:_ZN6Papyro13PrinterThread14imageGeneratedE6QImageb
libpapyro.so:_ZN6Papyro13PrinterThread15progressChangedEi
libpapyro.so:_ZN6Papyro13PrinterThread3runEv
libpapyro.so:_ZN6Papyro13PrinterThread6cancelEv
libpapyro.so:_ZN6Papyro13PrinterThreadC1EP7QObjectN5boost10shared_ptrIN5Spine8DocumentEEEP8QPrinter
libpapyro.so:_ZN6Papyro13PrinterThreadC2EP7QObjectN5boost10shared_ptrIN5Spine8DocumentEEEP8QPrinter
libpapyro.so:_ZN6Papyro13SliverPrivate11eventFilterEP7QObjectP6QEvent
libpapyro.so:_ZN6Papyro13SliverPrivate11qt_metacallEN11QMetaObject4CallEiPPv
libpapyro.so:_ZN6Papyro13SliverPrivate11qt_metacastEPKc
libpapyro.so:_ZN6Papyro13SliverPrivate12setTaskColorERK6QColor
libpapyro.so:_ZN6Papyro13SliverPrivate12titleChangedERK7QString
libpapyro.so:_ZN6Papyro13SliverPrivate4initEv
libpapyro.so:_ZN6Papyro13SliverPrivate8setTitleERK7QString
libpapyro.so:_ZN6Papyro13SliverPrivateC1EPNS_6SliverE
libpapyro.so:_ZN6Papyro13SliverPrivateC2EPNS_6SliverE
libpapyro.so:_ZN6Papyro13TabBarPrivate11qt_metacallEN11QMetaObject4CallEiPPv
libpapyro.so:_ZN6Papyro13TabBarPrivate11qt_metacastEPKc
libpapyro.so:_ZN6Papyro13TabBarPrivate11updateStateEPNS_7TabDataE
libpapyro.so:_ZN6Papyro13TabBarPrivate12tabDestroyedEP7QObject
libpapyro.so:_ZN6Papyro13TabBarPrivate13tabUrlChangedERK4QUrl
libpapyro.so:_ZN6Papyro13TabBarPrivate14closeRequestedEi
libpapyro.so:_ZN6Papyro13TabBarPrivate14updateHoverPosEv
libpapyro.so:_ZN6Papyro13TabBarPrivate15tabStateChangedENS_9PapyroTab5StateE
libpapyro.so:_ZN6Papyro13TabBarPrivate15tabTitleChangedERK7QString
libpapyro.so:_ZN6Papyro13TabBarPrivate16updateGeometriesEv
libpapyro.so:_ZN6Papyro13TabBarPrivate17onCitationChangedEP7QObject
libpapyro.so:_ZN6Papyro13TabBarPrivate17tabCloseRequestedEv
libpapyro.so:_ZN6Papyro13TabBarPrivate18tabProgressChangedEd
libpapyro.so:_ZN6Papyro13TabBarPrivate20onTabCitationChangedEv
libpapyro.so:_ZN6Papyro13TabBarPrivate20toggleAnimationTimerEv
libpapyro.so:_ZN6Papyro13TabBarPrivate7tabDataEi
libpapyro.so:_ZN6Papyro13TabBarPrivate8paintTabEP8QPainteri
libpapyro.so:_ZN6Papyro13TabBarPrivateC1EPNS_6TabBarE
libpapyro.so:_ZN6Papyro13TabBarPrivateC2EPNS_6TabBarE
libpapyro.so:_ZN6Papyro13TabBarPrivateD0Ev
libpapyro.so:_ZN6Papyro13TabBarPrivateD1Ev
libpapyro.so:_ZN6Papyro13TabBarPrivateD2Ev
libpapyro.so:_ZN6Papyro13UrlCapabilityC1ERK4QUrlRK7QStringRK7QPixmap
libpapyro.so:_ZN6Papyro13UrlCapabilityC2ERK4QUrlRK7QStringRK7QPixmap
libpapyro.so:_ZN6Papyro13citationToMapEN5boost10shared_ptrIN5Spine10AnnotationEEE
libpapyro.so:_ZN6Papyro13mapToCitationERK4QMapI7QString8QVariantE
libpapyro.so:_ZN6Papyro14DispatchEngine10dispatcherEv
libpapyro.so:_ZN6Papyro14DispatchEngine11qt_metacallEN11QMetaObject4CallEiPPv
libpapyro.so:_ZN6Papyro14DispatchEngine11qt_metacastEPKc
libpapyro.so:_ZN6Papyro14DispatchEngine15annotationFoundEN5boost10shared_ptrIN5Spine10AnnotationEEE
libpapyro.so:_ZN6Papyro14DispatchEngine21cancellationRequestedEv
libpapyro.so:_ZN6Papyro14DispatchEngine3runEv
libpapyro.so:_ZN6Papyro14DispatchEngine6cancelEv
libpapyro.so:_ZN6Papyro14DispatchEngine6detachEv
libpapyro.so:_ZN6Papyro14DispatchEngine8finishedEv
libpapyro.so:_ZN6Papyro14DispatchEngineC1EPNS_10DispatcherEPNS_17DispatcherPrivateEN5boost10shared_ptrIN5Spine8DocumentEEERK11QStringList
libpapyro.so:_ZN6Papyro14DispatchEngineC2EPNS_10DispatcherEPNS_17DispatcherPrivateEN5boost10shared_ptrIN5Spine8DocumentEEERK11QStringList
libpapyro.so:_ZN6Papyro14DispatchEngineD0Ev
libpapyro.so:_ZN6Papyro14DispatchEngineD1Ev
libpapyro.so:_ZN6Papyro14DispatchEngineD2Ev
libpapyro.so:_ZN6Papyro14LookupRunnable11qt_metacallEN11QMetaObject4CallEiPPv
libpapyro.so:_ZN6Papyro14LookupRunnable11qt_metacastEPKc
libpapyro.so:_ZN6Papyro14LookupRunnable15annotationFoundEN5boost10shared_ptrIN5Spine10AnnotationEEE
libpapyro.so:_ZN6Papyro14LookupRunnable3runEv
libpapyro.so:_ZN6Papyro14LookupRunnableC1EPNS_17DispatcherPrivateEPNS_14DispatchEngineEN5boost10shared_ptrIN5Spine8DocumentEEENS6_INS_9AnnotatorEEERK11QStringList
libpapyro.so:_ZN6Papyro14LookupRunnableC2EPNS_17DispatcherPrivateEPNS_14DispatchEngineEN5boost10shared_ptrIN5Spine8DocumentEEENS6_INS_9AnnotatorEEERK11QStringList
libpapyro.so:_ZN6Papyro14LookupRunnableD0Ev
libpapyro.so:_ZN6Papyro14LookupRunnableD1Ev
libpapyro.so:_ZN6Papyro14LookupRunnableD2Ev
libpapyro.so:_ZN6Papyro14PlayerControls10addControlEP11QToolButton
libpapyro.so:_ZN6Papyro14PlayerControls10paintEventEP11QPaintEvent
libpapyro.so:_ZN6Papyro14PlayerControls11playClickedEv
libpapyro.so:_ZN6Papyro14PlayerControls11qt_metacallEN11QMetaObject4CallEiPPv
libpapyro.so:_ZN6Papyro14PlayerControls11qt_metacastEPKc
libpapyro.so:_ZN6Papyro14PlayerControls12pauseClickedEv
libpapyro.so:_ZN6Papyro14PlayerControls13launchClickedEv
libpapyro.so:_ZN6Papyro14PlayerControls13removeControlEP11QToolButton
libpapyro.so:_ZN6Papyro14PlayerControls14magnifyClickedEv
libpapyro.so:_ZN6Papyro14PlayerControls15togglePlayPauseEv
libpapyro.so:_ZN6Papyro14PlayerControlsC1EP7QWidget
libpapyro.so:_ZN6Papyro14PlayerControlsC2EP7QWidget
libpapyro.so:_ZN6Papyro14PrinterPrivate10onFinishedEv
libpapyro.so:_ZN6Papyro14PrinterPrivate11qt_metacallEN11QMetaObject4CallEiPPv
libpapyro.so:_ZN6Papyro14PrinterPrivate11qt_metacastEPKc
libpapyro.so:_ZN6Papyro14PrinterPrivate15progressChangedEi
libpapyro.so:_ZN6Papyro14PrinterPrivate16onImageGeneratedE6QImageb
libpapyro.so:_ZN6Papyro14PrinterPrivateC1EPNS_7PrinterE
libpapyro.so:_ZN6Papyro14PrinterPrivateC2EPNS_7PrinterE
libpapyro.so:_ZN6Papyro14PrinterPrivateD0Ev
libpapyro.so:_ZN6Papyro14PrinterPrivateD1Ev
libpapyro.so:_ZN6Papyro14PrinterPrivateD2Ev
libpapyro.so:_ZN6Papyro14RaiseTabAction11qt_metacallEN11QMetaObject4CallEiPPv
libpapyro.so:_ZN6Papyro14RaiseTabAction11qt_metacastEPKc
libpapyro.so:_ZN6Papyro14RaiseTabActionC1EPNS_9PapyroTabEP7QObject
libpapyro.so:_ZN6Papyro14RaiseTabActionC2EPNS_9PapyroTabEP7QObject
libpapyro.so:_ZN6Papyro14RaiseTabActionD0Ev
libpapyro.so:_ZN6Papyro14RaiseTabActionD1Ev
libpapyro.so:_ZN6Papyro14RaiseTabActionD2Ev
libpapyro.so:_ZN6Papyro14SidebarPrivate11linkClickedERK4QUrlRK7QString
libpapyro.so:_ZN6Papyro14SidebarPrivate11qt_metacallEN11QMetaObject4CallEiPPv
libpapyro.so:_ZN6Papyro14SidebarPrivate11qt_metacastEPKc
libpapyro.so:_ZN6Papyro14SidebarPrivate12termExploredERK7QString
libpapyro.so:_ZN6Papyro14SidebarPrivate12urlRequestedERK4QUrlRK7QString
libpapyro.so:_ZN6Papyro14SidebarPrivate13updateSpinnerEv
libpapyro.so:_ZN6Papyro14SidebarPrivate19linkClickedFinishedEv
libpapyro.so:_ZN6Papyro14SidebarPrivate20onLookupBoxActivatedEv
libpapyro.so:_ZN6Papyro14SidebarPrivate26onHeaderLabelLinkActivatedERK7QString
libpapyro.so:_ZN6Papyro14SidebarPrivate27onResultsViewRunningChangedEb
libpapyro.so:_ZN6Papyro14SidebarPrivate28onDocumentAnnotationsChangedERKNSt7__cxx1112basic_stringIcSt11char_traitsIcESaIcEEERKSt3setIN5boost10shared_ptrIN5Spine10AnnotationEEESt4lessISE_ESaISE_EEb
libpapyro.so:_ZN6Papyro14SidebarPrivate33onListComboBoxCurrentIndexChangedEi
libpapyro.so:_ZN6Papyro14SidebarPrivateC1EPNS_7SidebarE
libpapyro.so:_ZN6Papyro14SidebarPrivateC2EPNS_7SidebarE
libpapyro.so:_ZN6Papyro14WidgetExpander10paintEventEP11QPaintEvent
libpapyro.so:_ZN6Papyro14WidgetExpander11qt_metacallEN11QMetaObject4CallEiPPv
libpapyro.so:_ZN6Papyro14WidgetExpander11qt_metacastEPKc
libpapyro.so:_ZN6Papyro14WidgetExpander11resizeEventEP12QResizeEvent
libpapyro.so:_ZN6Papyro14WidgetExpander5closeEv
libpapyro.so:_ZN6Papyro14WidgetExpander5eventEP6QEvent
libpapyro.so:_ZN6Papyro14WidgetExpander7animateEv
libpapyro.so:_ZN6Papyro14WidgetExpander9setPeriodEi
libpapyro.so:_ZN6Papyro14WidgetExpanderC1EP7QWidgetS2_
libpapyro.so:_ZN6Papyro14WidgetExpanderC2EP7QWidgetS2_
libpapyro.so:_ZN6Papyro15DocumentFactory4loadEPN6Utopia4NodeE
libpapyro.so:_ZN6Papyro15DocumentFactory4loadERK7QString
libpapyro.so:_ZN6Papyro15DocumentFactory6createERK7QString
libpapyro.so:_ZN6Papyro15DocumentManager11qt_metacallEN11QMetaObject4CallEiPPv
libpapyro.so:_ZN6Papyro15DocumentManager11qt_metacastEPKc
libpapyro.so:_ZN6Papyro15DocumentManager13documentAddedEN5boost10shared_ptrIN5Spine8DocumentEEE
libpapyro.so:_ZN6Papyro15DocumentManager15documentRemovedEN5boost10shared_ptrIN5Spine8DocumentEEE
libpapyro.so:_ZN6Papyro15DocumentManager16registerDocumentEN5boost10shared_ptrIN5Spine8DocumentEEE
libpapyro.so:_ZN6Papyro15DocumentManager18unregisterDocumentEN5boost10shared_ptrIN5Spine8DocumentEEE
libpapyro.so:_ZN6Papyro15DocumentManager4openEP9QIODevice
libpapyro.so:_ZN6Papyro15DocumentManager4openERK7QString
libpapyro.so:_ZN6Papyro15DocumentManager8instanceEv
libpapyro.so:_ZN6Papyro15DocumentManagerC1EP7QObject
libpapyro.so:_ZN6Papyro15DocumentManagerC2EP7QObject
libpapyro.so:_ZN6Papyro15OverlayRenderer15compositionModeEv
libpapyro.so:_ZN6Papyro15OverlayRenderer15getPathsForTextERKSt3setIN5boost10shared_ptrIN5Spine10AnnotationEEESt4lessIS6_ESaIS6_EE
libpapyro.so:_ZN6Papyro15OverlayRenderer15getRoundedPathsERKSt3setIN5boost10shared_ptrIN5Spine10AnnotationEEESt4lessIS6_ESaIS6_EE
libpapyro.so:_ZN6Papyro15OverlayRenderer16configurePainterEP8QPainterNS0_5StateE
libpapyro.so:_ZN6Papyro15OverlayRenderer16getPathsForAreasERKSt3setIN5boost10shared_ptrIN5Spine10AnnotationEEESt4lessIS6_ESaIS6_EE
libpapyro.so:_ZN6Papyro15OverlayRenderer18setCompositionModeEN8QPainter15CompositionModeE
libpapyro.so:_ZN6Papyro15OverlayRenderer22getRoundedPathsForTextERKSt3setIN5boost10shared_ptrIN5Spine10AnnotationEEESt4lessIS6_ESaIS6_EE
libpapyro.so:_ZN6Papyro15OverlayRenderer23getRoundedPathsForAreasERKSt3setIN5boost10shared_ptrIN5Spine10AnnotationEEESt4lessIS6_ESaIS6_EE
libpapyro.so:_ZN6Papyro15OverlayRenderer3penEv
libpapyro.so:_ZN6Papyro15OverlayRenderer5brushEv
libpapyro.so:_ZN6Papyro15OverlayRenderer6boundsEN5boost10shared_ptrIN5Spine8DocumentEEENS2_INS3_10AnnotationEEE
libpapyro.so:_ZN6Papyro15OverlayRenderer6cursorEv
libpapyro.so:_ZN6Papyro15OverlayRenderer6renderEN5boost10shared_ptrIN5Spine8DocumentEEENS2_INS3_10AnnotationEEENS0_5StateE
libpapyro.so:_ZN6Papyro15OverlayRenderer6renderEN5boost10shared_ptrIN5Spine8DocumentEEERKSt3setINS2_INS3_10AnnotationEEESt4lessIS8_ESaIS8_EENS0_5StateE
libpapyro.so:_ZN6Papyro15OverlayRenderer6setPenERK4QPen
libpapyro.so:_ZN6Papyro15OverlayRenderer6weightEv
libpapyro.so:_ZN6Papyro15OverlayRenderer8getPathsERKSt3setIN5boost10shared_ptrIN5Spine10AnnotationEEESt4lessIS6_ESaIS6_EE
libpapyro.so:_ZN6Papyro15OverlayRenderer8setBrushERK6QBrush
libpapyro.so:_ZN6Papyro15OverlayRendererC2Ev
libpapyro.so:_ZN6Papyro15OverlayRendererD0Ev
libpapyro.so:_ZN6Papyro15OverlayRendererD1Ev
libpapyro.so:_ZN6Papyro15OverlayRendererD2Ev
libpapyro.so:_ZN6Papyro15PageViewOverlayC1Ev
libpapyro.so:_ZN6Papyro15PageViewOverlayC2Ev
libpapyro.so:_ZN6Papyro15PageViewPrivate11qt_metacallEN11QMetaObject4CallEiPPv
libpapyro.so:_ZN6Papyro15PageViewPrivate11qt_metacastEPKc
libpapyro.so:_ZN6Papyro15PageViewPrivate12urlRequestedERK4QUrlRK7QString
libpapyro.so:_ZN6Papyro15PageViewPrivate15setMouseMovePosERK6QPoint
libpapyro.so:_ZN6Papyro15PageViewPrivate16setMousePressPosERK6QPoint
libpapyro.so:_ZN6Papyro15PageViewPrivate16setUserTransformEi
libpapyro.so:_ZN6Papyro15PageViewPrivate18applyUserTransformERK6QRectF
libpapyro.so:_ZN6Papyro15PageViewPrivate18applyUserTransformERK6QSizeF
libpapyro.so:_ZN6Papyro15PageViewPrivate18applyUserTransformERK7QPointF
libpapyro.so:_ZN6Papyro15PageViewPrivate18setMouseReleasePosERK6QPoint
libpapyro.so:_ZN6Papyro15PageViewPrivate20unapplyUserTransformERK6QRectF
libpapyro.so:_ZN6Papyro15PageViewPrivate20unapplyUserTransformERK6QSizeF
libpapyro.so:_ZN6Papyro15PageViewPrivate20unapplyUserTransformERK7QPointF
libpapyro.so:_ZN6Papyro15PageViewPrivate9browseUrlERK4QUrlRK7QString
libpapyro.so:_ZN6Papyro15PageViewPrivate9browseUrlERK7QStringS3_
libpapyro.so:_ZN6Papyro15PageViewPrivateC1EPNS_8PageViewE
libpapyro.so:_ZN6Papyro15PageViewPrivateC2EPNS_8PageViewE
libpapyro.so:_ZN6Papyro15ProgressLozenge10paintEventEP11QPaintEvent
libpapyro.so:_ZN6Papyro15ProgressLozenge11qt_metacallEN11QMetaObject4CallEiPPv
libpapyro.so:_ZN6Papyro15ProgressLozenge11qt_metacastEPKc
libpapyro.so:_ZN6Papyro15ProgressLozenge11setProgressEd
libpapyro.so:_ZN6Papyro15ProgressLozenge4stopEv
libpapyro.so:_ZN6Papyro15ProgressLozenge5startEv
libpapyro.so:_ZN6Papyro15ProgressLozenge8setColorE6QColor
libpapyro.so:_ZN6Papyro15ProgressLozenge8setLabelE7QString
libpapyro.so:_ZN6Papyro15ProgressLozenge9setPeriodEi
libpapyro.so:_ZN6Papyro15ProgressLozengeC1E7QString6QColorP7QWidget
libpapyro.so:_ZN6Papyro15ProgressLozengeC2E7QString6QColorP7QWidget
libpapyro.so:_ZN6Papyro15ProgressLozengeD0Ev
libpapyro.so:_ZN6Papyro15ProgressLozengeD1Ev
libpapyro.so:_ZN6Papyro15ProgressLozengeD2Ev
libpapyro.so:_ZN6Papyro16PapyroTabPrivate11eventFilterEP7QObjectP6QEvent
libpapyro.so:_ZN6Papyro16PapyroTabPrivate11handleEventEN5boost10shared_ptrINS_9AnnotatorEEERK7QStringRK4QMapIS5_8QVariantEP7QObjectPKc
libpapyro.so:_ZN6Papyro16PapyroTabPrivate11handleEventERK7QStringRK4QMapIS1_8QVariantEP7QObjectPKc
libpapyro.so:_ZN6Papyro16PapyroTabPrivate11qt_metacallEN11QMetaObject4CallEiPPv
libpapyro.so:_ZN6Papyro16PapyroTabPrivate11qt_metacastEPKc
libpapyro.so:_ZN6Papyro16PapyroTabPrivate11showSidebarEb
libpapyro.so:_ZN6Papyro16PapyroTabPrivate12errorChangedERK7QString
libpapyro.so:_ZN6Papyro16PapyroTabPrivate12focusChangedEPNS_8PageViewE7QPointF
libpapyro.so:_ZN6Papyro16PapyroTabPrivate12knownChangedEb
libpapyro.so:_ZN6Papyro16PapyroTabPrivate12requestImageEi
libpapyro.so:_ZN6Papyro16PapyroTabPrivate12stateChangedENS_9PapyroTab5StateE
libpapyro.so:_ZN6Papyro16PapyroTabPrivate13activateImageEi
libpapyro.so:_ZN6Papyro16PapyroTabPrivate13showLookupBarEb
libpapyro.so:_ZN6Papyro16PapyroTabPrivate14closeRequestedEv
libpapyro.so:_ZN6Papyro16PapyroTabPrivate14loadAnnotatorsEv
libpapyro.so:_ZN6Papyro16PapyroTabPrivate14publishChangesEv
libpapyro.so:_ZN6Papyro16PapyroTabPrivate14receiveFromBusERK7QStringRK8QVariant
libpapyro.so:_ZN6Papyro16PapyroTabPrivate14setProgressMsgERK7QStringRK4QUrl
libpapyro.so:_ZN6Papyro16PapyroTabPrivate14starredChangedEb
libpapyro.so:_ZN6Papyro16PapyroTabPrivate15cancelRunnablesEv
libpapyro.so:_ZN6Papyro16PapyroTabPrivate15onLookupStartedEv
libpapyro.so:_ZN6Papyro16PapyroTabPrivate15onLookupStoppedEv
libpapyro.so:_ZN6Papyro16PapyroTabPrivate16executeAnnotatorEi
libpapyro.so:_ZN6Papyro16PapyroTabPrivate16exploreSelectionEv
libpapyro.so:_ZN6Papyro16PapyroTabPrivate16onFilterFinishedEv
libpapyro.so:_ZN6Papyro16PapyroTabPrivate16onLookupOverrideEv
libpapyro.so:_ZN6Papyro16PapyroTabPrivate16reloadAnnotatorsEv
libpapyro.so:_ZN6Papyro16PapyroTabPrivate16resubscribeToBusEv
libpapyro.so:_ZN6Papyro16PapyroTabPrivate16showImageBrowserEb
libpapyro.so:_ZN6Papyro16PapyroTabPrivate16unloadAnnotatorsEv
libpapyro.so:_ZN6Papyro16PapyroTabPrivate17loadChemicalImageEi
libpapyro.so:_ZN6Papyro16PapyroTabPrivate17onCitationChangedEi8QVariant
libpapyro.so:_ZN6Papyro16PapyroTabPrivate18loadNextPagerImageEv
libpapyro.so:_ZN6Papyro16PapyroTabPrivate18onAnnotatorSkippedEv
libpapyro.so:_ZN6Papyro16PapyroTabPrivate18onAnnotatorStartedEv
libpapyro.so:_ZN6Papyro16PapyroTabPrivate18onPagerPageClickedEi
libpapyro.so:_ZN6Papyro16PapyroTabPrivate18onRemoveAnnotationEN5boost10shared_ptrIN5Spine10AnnotationEEE
libpapyro.so:_ZN6Papyro16PapyroTabPrivate19onAnnotatorFinishedEv
libpapyro.so:_ZN6Papyro16PapyroTabPrivate19on_load_event_chainEv
libpapyro.so:_ZN6Papyro16PapyroTabPrivate20onQuickSearchBarNextEv
libpapyro.so:_ZN6Papyro16PapyroTabPrivate20visualiseAnnotationsESt3setIN5boost10shared_ptrIN5Spine10AnnotationEEESt4lessIS6_ESaIS6_EERK4QMapI7QString8QVariantE
libpapyro.so:_ZN6Papyro16PapyroTabPrivate21activateChemicalImageEi
libpapyro.so:_ZN6Papyro16PapyroTabPrivate21cancellationRequestedEv
libpapyro.so:_ZN6Papyro16PapyroTabPrivate22contextMenuAboutToShowEP5QMenu
libpapyro.so:_ZN6Papyro16PapyroTabPrivate22onNetworkReplyFinishedEv
libpapyro.so:_ZN6Papyro16PapyroTabPrivate22on_marshal_event_chainEP7QObjectPKc
libpapyro.so:_ZN6Papyro16PapyroTabPrivate22queueAnnotatorRunnableEPNS_17AnnotatorRunnableE
libpapyro.so:_ZN6Papyro16PapyroTabPrivate23on_activate_event_chainEN5boost10shared_ptrINS_9AnnotatorEEERK4QMapI7QString8QVariantEP7QObjectPKc
libpapyro.so:_ZN6Papyro16PapyroTabPrivate24onQuickSearchBarPreviousEv
libpapyro.so:_ZN6Papyro16PapyroTabPrivate25onDocumentViewContextMenuEP5QMenuN5boost10shared_ptrIN5Spine8DocumentEEENS4_INS5_6CursorEEE
libpapyro.so:_ZN6Papyro16PapyroTabPrivate25onSidebarSelectionChangedEv
libpapyro.so:_ZN6Papyro16PapyroTabPrivate27onDispatcherAnnotationFoundEN5boost10shared_ptrIN5Spine10AnnotationEEE
libpapyro.so:_ZN6Papyro16PapyroTabPrivate28onDocumentAnnotationsChangedERKNSt7__cxx1112basic_stringIcSt11char_traitsIcESaIcEEERKSt3setIN5boost10shared_ptrIN5Spine10AnnotationEEESt4lessISE_ESaISE_EEb
libpapyro.so:_ZN6Papyro16PapyroTabPrivate28onDocumentProcessingFinishedEv
libpapyro.so:_ZN6Papyro16PapyroTabPrivate29onQuickSearchBarSearchForTextE7QString
libpapyro.so:_ZN6Papyro16PapyroTabPrivate30onDocumentAreaSelectionChangedERKNSt7__cxx1112basic_stringIcSt11char_traitsIcESaIcEEERKSt3setIN5Spine4AreaESt4lessISB_ESaISB_EEb
libpapyro.so:_ZN6Papyro16PapyroTabPrivate30onDocumentTextSelectionChangedERKNSt7__cxx1112basic_stringIcSt11char_traitsIcESaIcEEERKSt3setIN5boost10shared_ptrIN5Spine10TextExtentEEENSC_13ExtentCompareISD_EESaISE_EEb
libpapyro.so:_ZN6Papyro16PapyroTabPrivate30onDocumentViewPageFocusChangedEm
libpapyro.so:_ZN6Papyro16PapyroTabPrivate30onDocumentViewSpotlightsHiddenEv
libpapyro.so:_ZN6Papyro16PapyroTabPrivate30onImageBrowserEmptinessChangedEb
libpapyro.so:_ZN6Papyro16PapyroTabPrivate30onNetworkReplyDownloadProgressExx
libpapyro.so:_ZN6Papyro16PapyroTabPrivate33onProgressLinksLabelLinkActivatedERK7QString
libpapyro.so:_ZN6Papyro16PapyroTabPrivate34onDocumentViewAnnotationsActivatedESt3setIN5boost10shared_ptrIN5Spine10AnnotationEEESt4lessIS6_ESaIS6_EERK4QMapI7QString8QVariantE
libpapyro.so:_ZN6Papyro16PapyroTabPrivate4openEN5boost10shared_ptrIN5Spine8DocumentEEERK4QMapI7QString8QVariantENS2_IN9Athenaeum8CitationEEE
libpapyro.so:_ZN6Papyro16PapyroTabPrivate7exploreERK7QString
libpapyro.so:_ZN6Papyro16PapyroTabPrivate8setErrorERK7QString
libpapyro.so:_ZN6Papyro16PapyroTabPrivate8setStateENS_9PapyroTab5StateE
libpapyro.so:_ZN6Papyro16PapyroTabPrivate9loadImageEi
libpapyro.so:_ZN6Papyro16PapyroTabPrivate9showPagerEb
libpapyro.so:_ZN6Papyro16PapyroTabPrivateC1EPNS_9PapyroTabE
libpapyro.so:_ZN6Papyro16PapyroTabPrivateC2EPNS_9PapyroTabE
libpapyro.so:_ZN6Papyro16PapyroTabPrivateD0Ev
libpapyro.so:_ZN6Papyro16PapyroTabPrivateD1Ev
libpapyro.so:_ZN6Papyro16PapyroTabPrivateD2Ev
libpapyro.so:_ZN6Papyro16SyncPointEmitter11qt_metacallEN11QMetaObject4CallEiPPv
libpapyro.so:_ZN6Papyro16SyncPointEmitter11qt_metacastEPKc
libpapyro.so:_ZN6Papyro16SyncPointEmitter13emitSyncPointEv
libpapyro.so:_ZN6Papyro16SyncPointEmitter6syncedEv
libpapyro.so:_ZN6Papyro16SyncPointEmitterC1EP7QObject
libpapyro.so:_ZN6Papyro16SyncPointEmitterC2EP7QObject
libpapyro.so:_ZN6Papyro16weightedPropertyERKSt3setIN5boost10shared_ptrIN5Spine10AnnotationEEESt4lessIS5_ESaIS5_EERKNSt7__cxx1112basic_stringIcSt11char_traitsIcESaIcEEERKSt3mapISH_SH_S6_ISH_ESaISt4pairISI_SH_EEE
libpapyro.so:_ZN6Papyro17AbstractProcessor22generateFromMonoPixmapERK7QPixmap
libpapyro.so:_ZN6Papyro17AnnotatorRunnable11qt_metacallEN11QMetaObject4CallEiPPv
libpapyro.so:_ZN6Papyro17AnnotatorRunnable11qt_metacastEPKc
libpapyro.so:_ZN6Papyro17AnnotatorRunnable3runEv
libpapyro.so:_ZN6Papyro17AnnotatorRunnable4skipEv
libpapyro.so:_ZN6Papyro17AnnotatorRunnable6cancelEv
libpapyro.so:_ZN6Papyro17AnnotatorRunnable7startedEv
libpapyro.so:_ZN6Papyro17AnnotatorRunnable8finishedEb
libpapyro.so:_ZN6Papyro17AnnotatorRunnableC1EN5boost10shared_ptrINS_9AnnotatorEEERK7QStringNS2_IN5Spine8DocumentEEERK4QMapIS5_8QVariantE
libpapyro.so:_ZN6Papyro17AnnotatorRunnableC2EN5boost10shared_ptrINS_9AnnotatorEEERK7QStringNS2_IN5Spine8DocumentEEERK4QMapIS5_8QVariantE
libpapyro.so:_ZN6Papyro17AnnotatorRunnableD0Ev
libpapyro.so:_ZN6Papyro17AnnotatorRunnableD1Ev
libpapyro.so:_ZN6Papyro17AnnotatorRunnableD2Ev
libpapyro.so:_ZN6Papyro17NoOverlayRenderer2idEv
libpapyro.so:_ZN6Papyro17NoOverlayRenderer6boundsEN5boost10shared_ptrIN5Spine8DocumentEEENS2_INS3_10AnnotationEEE
libpapyro.so:_ZN6Papyro17NoOverlayRenderer6renderEN5boost10shared_ptrIN5Spine8DocumentEEERKSt3setINS2_INS3_10AnnotationEEESt4lessIS8_ESaIS8_EENS_15OverlayRenderer5StateE
libpapyro.so:_ZN6Papyro17ResultItemControl10setElementE11QWebElement
libpapyro.so:_ZN6Papyro17ResultItemControl11postMessageERK7QStringRK8QVariant
libpapyro.so:_ZN6Papyro17ResultItemControl11postMessageERK8QVariant
libpapyro.so:_ZN6Papyro17ResultItemControl11qt_metacallEN11QMetaObject4CallEiPPv
libpapyro.so:_ZN6Papyro17ResultItemControl11qt_metacastEPKc
libpapyro.so:_ZN6Papyro17ResultItemControl12stateChangedENS_10ResultItem5StateE
libpapyro.so:_ZN6Papyro17ResultItemControl13insertContentE11QWebElementRK8QVariant
libpapyro.so:_ZN6Papyro17ResultItemControl13toggleContentEv
libpapyro.so:_ZN6Papyro17ResultItemControl14contentChangedERK7QString
libpapyro.so:_ZN6Papyro17ResultItemControlC1EPNS_18ResultsViewPrivateEPNS_10ResultItemE
libpapyro.so:_ZN6Papyro17ResultItemControlC2EPNS_18ResultsViewPrivateEPNS_10ResultItemE
libpapyro.so:_ZN6Papyro17WebPageCapabilityC1ERK4QUrlRK7QStringRK7QPixmapS6_
libpapyro.so:_ZN6Papyro17WebPageCapabilityC2ERK4QUrlRK7QStringRK7QPixmapS6_
libpapyro.so:_ZN6Papyro18DownloadCapabilityC1ERK4QUrlRK7QStringRK7QPixmapS6_S6_
libpapyro.so:_ZN6Papyro18DownloadCapabilityC2ERK4QUrlRK7QStringRK7QPixmapS6_S6_
libpapyro.so:_ZN6Papyro18PageViewMouseEventC1EPNS_8PageViewEP11QMouseEventRK6QPointi
libpapyro.so:_ZN6Papyro18PageViewMouseEventC1EPNS_8PageViewERK6QPointN2Qt11MouseButtonE6QFlagsIS7_ES8_INS6_16KeyboardModifierEEi
libpapyro.so:_ZN6Papyro18PageViewMouseEventC1Ev
libpapyro.so:_ZN6Papyro18PageViewMouseEventC2EPNS_8PageViewEP11QMouseEventRK6QPointi
libpapyro.so:_ZN6Papyro18PageViewMouseEventC2EPNS_8PageViewERK6QPointN2Qt11MouseButtonE6QFlagsIS7_ES8_INS6_16KeyboardModifierEEi
libpapyro.so:_ZN6Papyro18PageViewMouseEventC2Ev
libpapyro.so:_ZN6Papyro18ResultsViewControl11linkClickedERK4QUrlRK7QString
libpapyro.so:_ZN6Papyro18ResultsViewControl11qt_metacallEN11QMetaObject4CallEiPPv
libpapyro.so:_ZN6Papyro18ResultsViewControl11qt_metacastEPKc
libpapyro.so:_ZN6Papyro18ResultsViewControl11resultAddedEP7QObject
libpapyro.so:_ZN6Papyro18ResultsViewControl12activateLinkERK7QStringS3_
libpapyro.so:_ZN6Papyro18ResultsViewControl12searchRemoteERK7QString
libpapyro.so:_ZN6Papyro18ResultsViewControl12termExploredERK7QString
libpapyro.so:_ZN6Papyro18ResultsViewControl14activateSourceEP7QObject
libpapyro.so:_ZN6Papyro18ResultsViewControl14formatCitationERK4QMapI7QString8QVariantERKS2_
libpapyro.so:_ZN6Papyro18ResultsViewControl14onLoadCompleteEv
libpapyro.so:_ZN6Papyro18ResultsViewControl15resolveMetadataERK4QMapI7QString8QVariantERKS2_
libpapyro.so:_ZN6Papyro18ResultsViewControl16activateCitationERK4QMapI7QString8QVariantERKS2_
libpapyro.so:_ZN6Papyro18ResultsViewControl17activateCitationsERK5QListI8QVariantERK7QString
libpapyro.so:_ZN6Papyro18ResultsViewControl18citationsActivatedERK5QListI8QVariantERK7QString
libpapyro.so:_ZN6Papyro18ResultsViewControl20defaultCitationStyleEv
libpapyro.so:_ZN6Papyro18ResultsViewControl23availableCitationStylesEv
libpapyro.so:_ZN6Papyro18ResultsViewControl7exploreERK7QString
libpapyro.so:_ZN6Papyro18ResultsViewControlC1EPNS_18ResultsViewPrivateE
libpapyro.so:_ZN6Papyro18ResultsViewControlC2EPNS_18ResultsViewPrivateE
libpapyro.so:_ZN6Papyro18ResultsViewPrivate11linkClickedERK4QUrlRK7QString
libpapyro.so:_ZN6Papyro18ResultsViewPrivate11qt_metacallEN11QMetaObject4CallEiPPv
libpapyro.so:_ZN6Papyro18ResultsViewPrivate11qt_metacastEPKc
libpapyro.so:_ZN6Papyro18ResultsViewPrivate11resultAddedEP7QObject
libpapyro.so:_ZN6Papyro18ResultsViewPrivate14runningChangedEb
libpapyro.so:_ZN6Papyro18ResultsViewPrivate27setupJavaScriptWindowObjectEv
libpapyro.so:_ZN6Papyro18ResultsViewPrivate9addResultEv
libpapyro.so:_ZN6Papyro18ResultsViewPrivateC1EPNS_11ResultsViewE
libpapyro.so:_ZN6Papyro18ResultsViewPrivateC2EPNS_11ResultsViewE
libpapyro.so:_ZN6Papyro18VisualiserRunnable11qt_metacallEN11QMetaObject4CallEiPPv
libpapyro.so:_ZN6Papyro18VisualiserRunnable11qt_metacastEPKc
libpapyro.so:_ZN6Papyro18VisualiserRunnable3runEv
libpapyro.so:_ZN6Papyro18VisualiserRunnable8finishedE7QString11QStringList
libpapyro.so:_ZN6Papyro18VisualiserRunnableC1EPNS_10VisualiserEN5boost10shared_ptrIN5Spine10AnnotationEEE7QString
libpapyro.so:_ZN6Papyro18VisualiserRunnableC2EPNS_10VisualiserEN5boost10shared_ptrIN5Spine10AnnotationEEE7QString
libpapyro.so:_ZN6Papyro19DocumentViewPrivate10initialiseEv
libpapyro.so:_ZN6Papyro19DocumentViewPrivate10mouseClickEPNS_18PageViewMouseEventE
libpapyro.so:_ZN6Papyro19DocumentViewPrivate10mousePressEPNS_18PageViewMouseEventE
libpapyro.so:_ZN6Papyro19DocumentViewPrivate10onTwoPagesEv
libpapyro.so:_ZN6Papyro19DocumentViewPrivate11eventFilterEP7QObjectP6QEvent
libpapyro.so:_ZN6Papyro19DocumentViewPrivate11qt_metacallEN11QMetaObject4CallEiPPv
libpapyro.so:_ZN6Papyro19DocumentViewPrivate11qt_metacastEPKc
libpapyro.so:_ZN6Papyro19DocumentViewPrivate11zoomChangedEv
libpapyro.so:_ZN6Papyro19DocumentViewPrivate12focusChangedEPNS_8PageViewERK7QPointF
libpapyro.so:_ZN6Papyro19DocumentViewPrivate12mouseReleaseEPNS_18PageViewMouseEventE
libpapyro.so:_ZN6Papyro19DocumentViewPrivate12onFitToWidthEv
libpapyro.so:_ZN6Papyro19DocumentViewPrivate13onFitToHeightEv
libpapyro.so:_ZN6Papyro19DocumentViewPrivate13onFitToWindowEv
libpapyro.so:_ZN6Papyro19DocumentViewPrivate13onTopDownFlowEv
libpapyro.so:_ZN6Papyro19DocumentViewPrivate13updateActionsEv
libpapyro.so:_ZN6Papyro19DocumentViewPrivate13update_layoutEi
libpapyro.so:_ZN6Papyro19DocumentViewPrivate14clearPageViewsEv
libpapyro.so:_ZN6Papyro19DocumentViewPrivate15createHighlightEPKN5Spine4AreaEN5boost10shared_ptrINS1_10TextExtentEEEbb
libpapyro.so:_ZN6Papyro19DocumentViewPrivate15createPageViewsEv
libpapyro.so:_ZN6Papyro19DocumentViewPrivate15isMouseOverTextEv
libpapyro.so:_ZN6Papyro19DocumentViewPrivate15updateSelectionEPNS_8PageViewE
libpapyro.so:_ZN6Papyro19DocumentViewPrivate16isMouseOverImageEv
libpapyro.so:_ZN6Papyro19DocumentViewPrivate16pageFocusChangedEm
libpapyro.so:_ZN6Papyro19DocumentViewPrivate16selectionChangedEN5Spine13TextSelectionE
libpapyro.so:_ZN6Papyro19DocumentViewPrivate16updateScrollBarsEv
libpapyro.so:_ZN6Papyro19DocumentViewPrivate17onLeftToRightFlowEv
libpapyro.so:_ZN6Papyro19DocumentViewPrivate17toggleBespokeZoomEb
libpapyro.so:_ZN6Papyro19DocumentViewPrivate18onSelectionStartedEv
libpapyro.so:_ZN6Papyro19DocumentViewPrivate18setAnnotationStateERKSt3setIN5boost10shared_ptrIN5Spine10AnnotationEEESt4lessIS6_ESaIS6_EENS_15OverlayRenderer5StateE
libpapyro.so:_ZN6Papyro19DocumentViewPrivate18toggleFirstPageOddEb
libpapyro.so:_ZN6Papyro19DocumentViewPrivate18updatePageOutlinesEv
libpapyro.so:_ZN6Papyro19DocumentViewPrivate19addInteractionStateENS0_16InteractionStateE
libpapyro.so:_ZN6Papyro19DocumentViewPrivate19onOnePageContinuousEv
libpapyro.so:_ZN6Papyro19DocumentViewPrivate19onSelectionFinishedEv
libpapyro.so:_ZN6Papyro19DocumentViewPrivate19setInteractionStateENS0_16InteractionStateE
libpapyro.so:_ZN6Papyro19DocumentViewPrivate20annotationsActivatedESt3setIN5boost10shared_ptrIN5Spine10AnnotationEEESt4lessIS6_ESaIS6_EERK4QMapI7QString8QVariantE
libpapyro.so:_ZN6Papyro19DocumentViewPrivate20layout_calculateGridEv
libpapyro.so:_ZN6Papyro19DocumentViewPrivate20onTwoPagesContinuousEv
libpapyro.so:_ZN6Papyro19DocumentViewPrivate20setInteractionStatesERK5QListINS0_16InteractionStateEE
libpapyro.so:_ZN6Papyro19DocumentViewPrivate20updateSavedSelectionERK4QSetIiE
libpapyro.so:_ZN6Papyro19DocumentViewPrivate22clearInteractionStatesEv
libpapyro.so:_ZN6Papyro19DocumentViewPrivate22onTextSelectionChangedEv
libpapyro.so:_ZN6Papyro19DocumentViewPrivate23onWaitingForHoldTimeoutEv
libpapyro.so:_ZN6Papyro19DocumentViewPrivate23updateScrollBarPoliciesEv
libpapyro.so:_ZN6Papyro19DocumentViewPrivate24applyActiveAreaSelectionEv
libpapyro.so:_ZN6Papyro19DocumentViewPrivate24applyActiveTextSelectionEv
libpapyro.so:_ZN6Papyro19DocumentViewPrivate25updateActiveAreaSelectionEv
libpapyro.so:_ZN6Papyro19DocumentViewPrivate25updateActiveTextSelectionEv
libpapyro.so:_ZN6Papyro19DocumentViewPrivate26layout_calculateWhitespaceEv
libpapyro.so:_ZN6Papyro19DocumentViewPrivate26layout_updatePageViewSizesEv
libpapyro.so:_ZN6Papyro19DocumentViewPrivate27onWaitingForDblClickTimeoutEv
libpapyro.so:_ZN6Papyro19DocumentViewPrivate27updateAnnotationsUnderMouseEPNS_8PageViewERK7QPointF
libpapyro.so:_ZN6Papyro19DocumentViewPrivate28onDocumentAnnotationsChangedERKNSt7__cxx1112basic_stringIcSt11char_traitsIcESaIcEEERKSt3setIN5boost10shared_ptrIN5Spine10AnnotationEEESt4lessISE_ESaISE_EEb
libpapyro.so:_ZN6Papyro19DocumentViewPrivate30layout_calculateVerticalOriginEv
libpapyro.so:_ZN6Papyro19DocumentViewPrivate30layout_updatePageViewPositionsEv
libpapyro.so:_ZN6Papyro19DocumentViewPrivate30onDocumentAreaSelectionChangedERKNSt7__cxx1112basic_stringIcSt11char_traitsIcESaIcEEERKSt3setIN5Spine4AreaESt4lessISB_ESaISB_EEb
libpapyro.so:_ZN6Papyro19DocumentViewPrivate30onDocumentTextSelectionChangedERKNSt7__cxx1112basic_stringIcSt11char_traitsIcESaIcEEERKSt3setIN5boost10shared_ptrIN5Spine10TextExtentEEENSC_13ExtentCompareISD_EESaISE_EEb
libpapyro.so:_ZN6Papyro19DocumentViewPrivate31onVerticalScrollBarValueChangedEi
libpapyro.so:_ZN6Papyro19DocumentViewPrivate32layout_calculateHorizontalOriginEv
libpapyro.so:_ZN6Papyro19DocumentViewPrivate33layout_calculatePageViewPositionsEv
libpapyro.so:_ZN6Papyro19DocumentViewPrivate33onHorizontalScrollBarValueChangedEi
libpapyro.so:_ZN6Papyro19DocumentViewPrivate7setZoomEd
libpapyro.so:_ZN6Papyro19DocumentViewPrivate9mouseDragEPNS_18PageViewMouseEventE
libpapyro.so:_ZN6Papyro19DocumentViewPrivate9mouseHoldEPNS_18PageViewMouseEventE
libpapyro.so:_ZN6Papyro19DocumentViewPrivate9mouseMoveEPNS_18PageViewMouseEventE
libpapyro.so:_ZN6Papyro19DocumentViewPrivate9onOnePageEv
libpapyro.so:_ZN6Papyro19DocumentViewPrivateC1EPNS_12DocumentViewE
libpapyro.so:_ZN6Papyro19DocumentViewPrivateC2EPNS_12DocumentViewE
libpapyro.so:_ZN6Papyro19EmbeddedPanePrivate11qt_metacallEN11QMetaObject4CallEiPPv
libpapyro.so:_ZN6Papyro19EmbeddedPanePrivate11qt_metacastEPKc
libpapyro.so:_ZN6Papyro19EmbeddedPanePrivate13startDownloadERK4QUrl
libpapyro.so:_ZN6Papyro19EmbeddedPanePrivate13statusChangedENS_12EmbeddedPane6StatusE
libpapyro.so:_ZN6Papyro19EmbeddedPanePrivate14downloadFailedEv
libpapyro.so:_ZN6Papyro19EmbeddedPanePrivate15downloadAbortedEv
libpapyro.so:_ZN6Papyro19EmbeddedPanePrivate16downloadCompleteEP13QNetworkReply
libpapyro.so:_ZN6Papyro19EmbeddedPanePrivate19onNetworkReplyErrorEN13QNetworkReply12NetworkErrorE
libpapyro.so:_ZN6Papyro19EmbeddedPanePrivate22onNetworkReplyFinishedEv
libpapyro.so:_ZN6Papyro19EmbeddedPanePrivate30onNetworkReplyDownloadProgressExx
libpapyro.so:_ZN6Papyro19EmbeddedPanePrivate9setStatusENS_12EmbeddedPane6StatusE
libpapyro.so:_ZN6Papyro19EmbeddedPanePrivateC1EPNS_12EmbeddedPaneE6QFlagsINS1_15InteractionFlagEE
libpapyro.so:_ZN6Papyro19EmbeddedPanePrivateC2EPNS_12EmbeddedPaneE6QFlagsINS1_15InteractionFlagEE
libpapyro.so:_ZN6Papyro19EmbeddedPanePrivateD0Ev
libpapyro.so:_ZN6Papyro19EmbeddedPanePrivateD1Ev
libpapyro.so:_ZN6Papyro19EmbeddedPanePrivateD2Ev
libpapyro.so:_ZN6Papyro19PapyroWindowPrivate10initialiseEv
libpapyro.so:_ZN6Papyro19PapyroWindowPrivate10showSearchEv
libpapyro.so:_ZN6Papyro19PapyroWindowPrivate11eventFilterEP7QObjectP6QEvent
libpapyro.so:_ZN6Papyro19PapyroWindowPrivate11onNewWindowEv
libpapyro.so:_ZN6Papyro19PapyroWindowPrivate11qt_metacallEN11QMetaObject4CallEiPPv
libpapyro.so:_ZN6Papyro19PapyroWindowPrivate11qt_metacastEPKc
libpapyro.so:_ZN6Papyro19PapyroWindowPrivate11showLibraryEb
libpapyro.so:_ZN6Papyro19PapyroWindowPrivate12onModeChangeEi
libpapyro.so:_ZN6Papyro19PapyroWindowPrivate12rebuildMenusEv
libpapyro.so:_ZN6Papyro19PapyroWindowPrivate13showDocumentsEv
libpapyro.so:_ZN6Papyro19PapyroWindowPrivate13updateTabInfoEv
libpapyro.so:_ZN6Papyro19PapyroWindowPrivate14closeOtherTabsEi
libpapyro.so:_ZN6Papyro19PapyroWindowPrivate14onUrlRequestedERK4QUrlRK7QString
libpapyro.so:_ZN6Papyro19PapyroWindowPrivate14receiveFromBusERK7QStringRK8QVariant
libpapyro.so:_ZN6Papyro19PapyroWindowPrivate15onLibraryDeleteEv
libpapyro.so:_ZN6Papyro19PapyroWindowPrivate15onLibraryExportEv
libpapyro.so:_ZN6Papyro19PapyroWindowPrivate15onLibraryRenameEv
libpapyro.so:_ZN6Papyro19PapyroWindowPrivate15onTabUrlChangedERK4QUrl
libpapyro.so:_ZN6Papyro19PapyroWindowPrivate16copySelectedTextEv
libpapyro.so:_ZN6Papyro19PapyroWindowPrivate16generateToolIconERK5QIconRK5QSize
libpapyro.so:_ZN6Papyro19PapyroWindowPrivate16generateToolIconERK7QPixmapRK5QSize
libpapyro.so:_ZN6Papyro19PapyroWindowPrivate16onLibraryToggledEb
libpapyro.so:_ZN6Papyro19PapyroWindowPrivate16onTabContextMenuEP5QMenu
libpapyro.so:_ZN6Papyro19PapyroWindowPrivate17currentTabChangedEv
libpapyro.so:_ZN6Papyro19PapyroWindowPrivate17onFilterRequestedERK7QStringN9Athenaeum22BibliographicSearchBox12SearchDomainE
libpapyro.so:_ZN6Papyro19PapyroWindowPrivate17onLibrarySelectedERK11QModelIndexS3_
libpapyro.so:_ZN6Papyro19PapyroWindowPrivate17onSearchRequestedERK7QStringN9Athenaeum22BibliographicSearchBox12SearchDomainE
libpapyro.so:_ZN6Papyro19PapyroWindowPrivate17onTabKnownChangedEb
libpapyro.so:_ZN6Papyro19PapyroWindowPrivate17onTabStateChangedENS_9PapyroTab5StateE
libpapyro.so:_ZN6Papyro19PapyroWindowPrivate17onTabTitleChangedERK7QString
libpapyro.so:_ZN6Papyro19PapyroWindowPrivate18changeToLayerStateENS0_10LayerStateE
libpapyro.so:_ZN6Papyro19PapyroWindowPrivate18moveTabToNewWindowEi
libpapyro.so:_ZN6Papyro19PapyroWindowPrivate18onArticleActivatedERK11QModelIndex
libpapyro.so:_ZN6Papyro19PapyroWindowPrivate18onTabLayoutChangedEv
libpapyro.so:_ZN6Papyro19PapyroWindowPrivate18removeRemoteSearchEv
libpapyro.so:_ZN6Papyro19PapyroWindowPrivate18setInitialGeometryEv
libpapyro.so:_ZN6Papyro19PapyroWindowPrivate19closeArticlePreviewEv
libpapyro.so:_ZN6Papyro19PapyroWindowPrivate19onCurrentTabChangedEi
libpapyro.so:_ZN6Papyro19PapyroWindowPrivate19updateManualLayoutsEv
libpapyro.so:_ZN6Papyro19PapyroWindowPrivate19updateTabVisibilityEv
libpapyro.so:_ZN6Papyro19PapyroWindowPrivate20addPrimaryToolButtonERK5QIconRK7QStringib
libpapyro.so:_ZN6Papyro19PapyroWindowPrivate20onCitationsActivatedERK5QListI8QVariantERK7QString
libpapyro.so:_ZN6Papyro19PapyroWindowPrivate20onModeChangeDoodlingEv
libpapyro.so:_ZN6Papyro19PapyroWindowPrivate20onTabCitationChangedEv
libpapyro.so:_ZN6Papyro19PapyroWindowPrivate20onTabDocumentChangedEv
libpapyro.so:_ZN6Papyro19PapyroWindowPrivate20openSelectedArticlesEv
libpapyro.so:_ZN6Papyro19PapyroWindowPrivate20updateSearchFilterUIEv
libpapyro.so:_ZN6Papyro19PapyroWindowPrivate21cancellationRequestedEv
libpapyro.so:_ZN6Papyro19PapyroWindowPrivate21checkForSupportedUrlsEPK9QMimeData
libpapyro.so:_ZN6Papyro19PapyroWindowPrivate21onCornerButtonClickedEb
libpapyro.so:_ZN6Papyro19PapyroWindowPrivate21onModeChangeSelectingEv
libpapyro.so:_ZN6Papyro19PapyroWindowPrivate22deleteSelectedArticlesEv
libpapyro.so:_ZN6Papyro19PapyroWindowPrivate22exportArticleCitationsERK14QItemSelection
libpapyro.so:_ZN6Papyro19PapyroWindowPrivate22onClipboardDataChangedEv
libpapyro.so:_ZN6Papyro19PapyroWindowPrivate22onLibraryNewCollectionEv
libpapyro.so:_ZN6Papyro19PapyroWindowPrivate24onModeChangeHighlightingEv
libpapyro.so:_ZN6Papyro19PapyroWindowPrivate25onArticlePreviewRequestedERK11QModelIndex
libpapyro.so:_ZN6Papyro19PapyroWindowPrivate25toggleFavouriteActionNameEv
libpapyro.so:_ZN6Papyro19PapyroWindowPrivate26onLibraryCustomContextMenuERK6QPoint
libpapyro.so:_ZN6Papyro19PapyroWindowPrivate26onPrimaryToolButtonClickedEi
libpapyro.so:_ZN6Papyro19PapyroWindowPrivate26onRemoteSearchStateChangedEN9Athenaeum20AbstractBibliography5StateE
libpapyro.so:_ZN6Papyro19PapyroWindowPrivate27onResolverRunnableCompletedEN5boost10shared_ptrIN9Athenaeum8CitationEEE
libpapyro.so:_ZN6Papyro19PapyroWindowPrivate28updateHighlightingModeButtonEv
libpapyro.so:_ZN6Papyro19PapyroWindowPrivate29copySelectedArticlesToLibraryEv
libpapyro.so:_ZN6Papyro19PapyroWindowPrivate29onArticleViewArticleActivatedERK11QModelIndexb
libpapyro.so:_ZN6Papyro19PapyroWindowPrivate30onArticleViewArticlesActivatedERK5QListI11QModelIndexEb
libpapyro.so:_ZN6Papyro19PapyroWindowPrivate30onHighlightingModeOptionChosenEv
libpapyro.so:_ZN6Papyro19PapyroWindowPrivate31openSelectedArticlesInNewWindowEv
libpapyro.so:_ZN6Papyro19PapyroWindowPrivate33exportCitationsOfSelectedArticlesEv
libpapyro.so:_ZN6Papyro19PapyroWindowPrivate34onHighlightingModeOptionsRequestedEv
libpapyro.so:_ZN6Papyro19PapyroWindowPrivate34onTabBarCustomContextMenuRequestedERK6QPoint
libpapyro.so:_ZN6Papyro19PapyroWindowPrivate39onArticleViewCustomContextMenuRequestedERK6QPoint
libpapyro.so:_ZN6Papyro19PapyroWindowPrivate4tabsEv
libpapyro.so:_ZN6Papyro19PapyroWindowPrivate5tabAtEi
libpapyro.so:_ZN6Papyro19PapyroWindowPrivate6addTabEPNS_9PapyroTabE
libpapyro.so:_ZN6Papyro19PapyroWindowPrivate6newTabEv
libpapyro.so:_ZN6Papyro19PapyroWindowPrivate6windowEv
libpapyro.so:_ZN6Papyro19PapyroWindowPrivate7onCloseEv
libpapyro.so:_ZN6Papyro19PapyroWindowPrivate7onPrintEv
libpapyro.so:_ZN6Papyro19PapyroWindowPrivate7takeTabEi
libpapyro.so:_ZN6Papyro19PapyroWindowPrivate8closeTabEi
libpapyro.so:_ZN6Papyro19PapyroWindowPrivate8emptyTabEv
libpapyro.so:_ZN6Papyro19PapyroWindowPrivateC1EPNS_12PapyroWindowE
libpapyro.so:_ZN6Papyro19PapyroWindowPrivateC2EPNS_12PapyroWindowE
libpapyro.so:_ZN6Papyro19PapyroWindowPrivateD0Ev
libpapyro.so:_ZN6Papyro19PapyroWindowPrivateD1Ev
libpapyro.so:_ZN6Papyro19PapyroWindowPrivateD2Ev
libpapyro.so:_ZN6Papyro20AnnotationResultItem15generateContentEv
libpapyro.so:_ZN6Papyro20AnnotationResultItemC1EN5boost10shared_ptrIN5Spine10AnnotationEEERK4QMapI7QString8QVariantE
libpapyro.so:_ZN6Papyro20AnnotationResultItemC2EN5boost10shared_ptrIN5Spine10AnnotationEEERK4QMapI7QString8QVariantE
libpapyro.so:_ZN6Papyro20AnnotationResultItemD0Ev
libpapyro.so:_ZN6Papyro20AnnotationResultItemD1Ev
libpapyro.so:_ZN6Papyro20AnnotationResultItemD2Ev
libpapyro.so:_ZN6Papyro20AttachmentCapabilityC1ERK4QUrlRK7QStringRK7QPixmapS6_S6_iS3_
libpapyro.so:_ZN6Papyro20AttachmentCapabilityC2ERK4QUrlRK7QStringRK7QPixmapS6_S6_iS3_
libpapyro.so:_ZN6Papyro20CitationPopupPrivate11qt_metacallEN11QMetaObject4CallEiPPv
libpapyro.so:_ZN6Papyro20CitationPopupPrivate11qt_metacastEPKc
libpapyro.so:_ZN6Papyro20DocumentProxyPrivate11qt_metacallEN11QMetaObject4CallEiPPv
libpapyro.so:_ZN6Papyro20DocumentProxyPrivate11qt_metacastEPKc
libpapyro.so:_ZN6Papyro20DocumentProxyPrivate18annotationsChangedENSt7__cxx1112basic_stringIcSt11char_traitsIcESaIcEEESt3setIN5boost10shared_ptrIN5Spine10AnnotationEEESt4lessISC_ESaISC_EEb
libpapyro.so:_ZN6Papyro20DocumentProxyPrivate20areaSelectionChangedENSt7__cxx1112basic_stringIcSt11char_traitsIcESaIcEEESt3setIN5Spine4AreaESt4lessIS9_ESaIS9_EEb
libpapyro.so:_ZN6Papyro20DocumentProxyPrivate20onAnnotationsChangedERKNSt7__cxx1112basic_stringIcSt11char_traitsIcESaIcEEERKSt3setIN5boost10shared_ptrIN5Spine10AnnotationEEESt4lessISE_ESaISE_EEb
libpapyro.so:_ZN6Papyro20DocumentProxyPrivate20textSelectionChangedENSt7__cxx1112basic_stringIcSt11char_traitsIcESaIcEEESt3setIN5boost10shared_ptrIN5Spine10TextExtentEEENSA_13ExtentCompareISB_EESaISC_EEb
libpapyro.so:_ZN6Papyro20DocumentProxyPrivate22onAreaSelectionChangedERKNSt7__cxx1112basic_stringIcSt11char_traitsIcESaIcEEERKSt3setIN5Spine4AreaESt4lessISB_ESaISB_EEb
libpapyro.so:_ZN6Papyro20DocumentProxyPrivate22onTextSelectionChangedERKNSt7__cxx1112basic_stringIcSt11char_traitsIcESaIcEEERKSt3setIN5boost10shared_ptrIN5Spine10TextExtentEEENSC_13ExtentCompareISD_EESaISE_EEb
libpapyro.so:_ZN6Papyro20DocumentProxyPrivateC1EPNS_13DocumentProxyE
libpapyro.so:_ZN6Papyro20DocumentProxyPrivateC2EPNS_13DocumentProxyE
libpapyro.so:_ZN6Papyro20EmbeddedFrameOverlay11qt_metacallEN11QMetaObject4CallEiPPv
libpapyro.so:_ZN6Papyro20EmbeddedFrameOverlay11qt_metacastEPKc
libpapyro.so:_ZN6Papyro20PageViewRenderThread11qt_metacallEN11QMetaObject4CallEiPPv
libpapyro.so:_ZN6Papyro20PageViewRenderThread11qt_metacastEPKc
libpapyro.so:_ZN6Papyro20PageViewRenderThread3runEv
libpapyro.so:_ZN6Papyro20PageViewRenderThread5imageEv
libpapyro.so:_ZN6Papyro20PageViewRenderThread7isDirtyEv
libpapyro.so:_ZN6Papyro20PageViewRenderThread9getTargetEP5QSizeP6QColor
libpapyro.so:_ZN6Papyro20PageViewRenderThread9setTargetE5QSize6QColor
libpapyro.so:_ZN6Papyro20PageViewRenderThreadC1EPNS_8PageViewE
libpapyro.so:_ZN6Papyro20PageViewRenderThreadC2EPNS_8PageViewE
libpapyro.so:_ZN6Papyro20PageViewRenderThreadD0Ev
libpapyro.so:_ZN6Papyro20PageViewRenderThreadD1Ev
libpapyro.so:_ZN6Papyro20PageViewRenderThreadD2Ev
libpapyro.so:_ZN6Papyro20VisualiserCapability8generateEN5boost10shared_ptrIN5Spine10AnnotationEEE7QStringP7QObjectPKc
libpapyro.so:_ZN6Papyro20VisualiserCapabilityC1EPNS_10VisualiserE
libpapyro.so:_ZN6Papyro20VisualiserCapabilityC2EPNS_10VisualiserE
libpapyro.so:_ZN6Papyro20convert_to_cslengineERK4QMapI7QString8QVariantE
libpapyro.so:_ZN6Papyro20qImageFromSpineImageEPKN5Spine5ImageE
libpapyro.so:_ZN6Papyro21AnnotatorRunnablePool10onFinishedEv
libpapyro.so:_ZN6Papyro21AnnotatorRunnablePool11qt_metacallEN11QMetaObject4CallEiPPv
libpapyro.so:_ZN6Papyro21AnnotatorRunnablePool11qt_metacastEPKc
libpapyro.so:_ZN6Papyro21AnnotatorRunnablePool11waitForDoneEv
libpapyro.so:_ZN6Papyro21AnnotatorRunnablePool4skipEv
libpapyro.so:_ZN6Papyro21AnnotatorRunnablePool4syncEPK7QObjectPKcN2Qt14ConnectionTypeE
libpapyro.so:_ZN6Papyro21AnnotatorRunnablePool4syncEv
libpapyro.so:_ZN6Papyro21AnnotatorRunnablePool5startE5QListIPNS_17AnnotatorRunnableEEi
libpapyro.so:_ZN6Papyro21AnnotatorRunnablePool5startEPNS_17AnnotatorRunnableEi
libpapyro.so:_ZN6Papyro21AnnotatorRunnablePool6_startEPNS_17AnnotatorRunnableEi
libpapyro.so:_ZN6Papyro21AnnotatorRunnablePool6syncedEv
libpapyro.so:_ZN6Papyro21AnnotatorRunnablePool7startedEv
libpapyro.so:_ZN6Papyro21AnnotatorRunnablePool8finishedEv
libpapyro.so:_ZN6Papyro21AnnotatorRunnablePool8isActiveEv
libpapyro.so:_ZN6Papyro21AnnotatorRunnablePool9onStartedEv
libpapyro.so:_ZN6Papyro21AnnotatorRunnablePoolC1EP7QObject
libpapyro.so:_ZN6Papyro21AnnotatorRunnablePoolC2EP7QObject
libpapyro.so:_ZN6Papyro21AnnotatorRunnablePoolD0Ev
libpapyro.so:_ZN6Papyro21AnnotatorRunnablePoolD1Ev
libpapyro.so:_ZN6Papyro21AnnotatorRunnablePoolD2Ev
libpapyro.so:_ZN6Papyro21OverlayRendererMapperD0Ev
libpapyro.so:_ZN6Papyro21OverlayRendererMapperD1Ev
libpapyro.so:_ZN6Papyro21OverlayRendererMapperD2Ev
libpapyro.so:_ZN6Papyro21PapyroRecentUrlHelper11qt_metacallEN11QMetaObject4CallEiPPv
libpapyro.so:_ZN6Papyro21PapyroRecentUrlHelper11qt_metacastEPKc
libpapyro.so:_ZN6Papyro21PapyroRecentUrlHelper17activateRecentUrlE4QUrl
libpapyro.so:_ZN6Papyro21PapyroRecentUrlHelper8closeAllEv
libpapyro.so:_ZN6Papyro21PapyroRecentUrlHelper8instanceEv
libpapyro.so:_ZN6Papyro21PapyroRecentUrlHelperC1Ev
libpapyro.so:_ZN6Papyro21PapyroRecentUrlHelperC2Ev
libpapyro.so:_ZN6Papyro21RaiseTabActionPrivate11eventFilterEP7QObjectP6QEvent
libpapyro.so:_ZN6Papyro21RaiseTabActionPrivate11qt_metacallEN11QMetaObject4CallEiPPv
libpapyro.so:_ZN6Papyro21RaiseTabActionPrivate11qt_metacastEPKc
libpapyro.so:_ZN6Papyro21RaiseTabActionPrivate13resolveWindowEv
libpapyro.so:_ZN6Papyro21RaiseTabActionPrivate15installOnWindowEv
libpapyro.so:_ZN6Papyro21RaiseTabActionPrivate17onTabTitleChangedERK7QString
libpapyro.so:_ZN6Papyro21RaiseTabActionPrivate19uninstallFromWindowEv
libpapyro.so:_ZN6Papyro21RaiseTabActionPrivate5checkEv
libpapyro.so:_ZN6Papyro21RaiseTabActionPrivate5raiseEv
libpapyro.so:_ZN6Papyro21RaiseTabActionPrivate6updateEv
libpapyro.so:_ZN6Papyro21RaiseTabActionPrivateC1EPNS_14RaiseTabActionEPNS_9PapyroTabE
libpapyro.so:_ZN6Papyro21RaiseTabActionPrivateC2EPNS_14RaiseTabActionEPNS_9PapyroTabE
libpapyro.so:_ZN6Papyro21RaiseTabActionPrivateD0Ev
libpapyro.so:_ZN6Papyro21RaiseTabActionPrivateD1Ev
libpapyro.so:_ZN6Papyro21RaiseTabActionPrivateD2Ev
libpapyro.so:_ZN6Papyro21RoundyOverlayRenderer6boundsEN5boost10shared_ptrIN5Spine8DocumentEEENS2_INS3_10AnnotationEEE
libpapyro.so:_ZN6Papyro21RoundyOverlayRenderer6renderEN5boost10shared_ptrIN5Spine8DocumentEEERKSt3setINS2_INS3_10AnnotationEEESt4lessIS8_ESaIS8_EENS_15OverlayRenderer5StateE
libpapyro.so:_ZN6Papyro21weightedFirstPropertyERKSt3setIN5boost10shared_ptrIN5Spine10AnnotationEEESt4lessIS5_ESaIS5_EERKNSt7__cxx1112basic_stringIcSt11char_traitsIcESaIcEEERKSt3mapISH_SH_S6_ISH_ESaISt4pairISI_SH_EEE
libpapyro.so:_ZN6Papyro22CitationFinderRunnable11qt_metacallEN11QMetaObject4CallEiPPv
libpapyro.so:_ZN6Papyro22CitationFinderRunnable11qt_metacastEPKc
libpapyro.so:_ZN6Papyro22CitationFinderRunnable3runEv
libpapyro.so:_ZN6Papyro22CitationFinderRunnable9foundLinkE7QStringS1_
libpapyro.so:_ZN6Papyro22CitationFinderRunnableC1EPNS_14CitationFinderEN5boost10shared_ptrIN5Spine10AnnotationEEE
libpapyro.so:_ZN6Papyro22CitationFinderRunnableC2EPNS_14CitationFinderEN5boost10shared_ptrIN5Spine10AnnotationEEE
libpapyro.so:_ZN6Papyro22DefaultOverlayRenderer2idEv
libpapyro.so:_ZN6Papyro22DefaultOverlayRenderer6cursorEv
libpapyro.so:_ZN6Papyro22DefaultOverlayRenderer6renderEN5boost10shared_ptrIN5Spine8DocumentEEERKSt3setINS2_INS3_10AnnotationEEESt4lessIS8_ESaIS8_EENS_15OverlayRenderer5StateE
libpapyro.so:_ZN6Papyro22DocumentManagerPrivate11qt_metacallEN11QMetaObject4CallEiPPv
libpapyro.so:_ZN6Papyro22DocumentManagerPrivate11qt_metacastEPKc
libpapyro.so:_ZN6Papyro22DocumentManagerPrivate14onServiceAddedEPN4Kend7ServiceE
libpapyro.so:_ZN6Papyro22DocumentManagerPrivate15resolveDocumentEPN4Kend7ServiceEN5boost10shared_ptrIN5Spine8DocumentEEE
libpapyro.so:_ZN6Papyro22DocumentManagerPrivate16onServiceRemovedEPN4Kend7ServiceE
libpapyro.so:_ZN6Papyro22DocumentManagerPrivate16registerDocumentEPN4Kend7ServiceEN5boost10shared_ptrIN5Spine8DocumentEEE
libpapyro.so:_ZN6Papyro22DocumentManagerPrivate17onResolveFinishedEv
libpapyro.so:_ZN6Papyro22DocumentManagerPrivate18unregisterDocumentEPN4Kend7ServiceEN5boost10shared_ptrIN5Spine8DocumentEEE
libpapyro.so:_ZN6Papyro22DocumentManagerPrivate21onServiceStateChangedEPN4Kend7ServiceENS2_12ServiceStateE
libpapyro.so:_ZN6Papyro22DocumentManagerPrivateC1EPNS_15DocumentManagerE
libpapyro.so:_ZN6Papyro22DocumentManagerPrivateC2EPNS_15DocumentManagerE
libpapyro.so:_ZN6Papyro22DocumentManagerPrivateD0Ev
libpapyro.so:_ZN6Papyro22DocumentManagerPrivateD1Ev
libpapyro.so:_ZN6Papyro22DocumentManagerPrivateD2Ev
libpapyro.so:_ZN6Papyro22citationValueToUnicodeB5cxx11ERK8QVariant
libpapyro.so:_ZN6Papyro24CitationFinderCapability8generateEN5boost10shared_ptrIN5Spine10AnnotationEEEP7QObjectPKc
libpapyro.so:_ZN6Papyro24CitationFinderCapabilityC1EPNS_14CitationFinderE
libpapyro.so:_ZN6Papyro24CitationFinderCapabilityC2EPNS_14CitationFinderE
libpapyro.so:_ZN6Papyro24MetadataResolutionFuture11qt_metacallEN11QMetaObject4CallEiPPv
libpapyro.so:_ZN6Papyro24MetadataResolutionFuture11qt_metacastEPKc
libpapyro.so:_ZN6Papyro24MetadataResolutionFuture27onResolverRunnableCompletedEN5boost10shared_ptrIN9Athenaeum8CitationEEE
libpapyro.so:_ZN6Papyro24MetadataResolutionFuture4doomEv
libpapyro.so:_ZN6Papyro24MetadataResolutionFuture4lockEv
libpapyro.so:_ZN6Papyro24MetadataResolutionFuture6unlockEv
libpapyro.so:_ZN6Papyro24MetadataResolutionFuture9completedERK4QMapI7QString8QVariantE
libpapyro.so:_ZN6Papyro24MetadataResolutionFutureC1ERK4QMapI7QString8QVariantERKS2_
libpapyro.so:_ZN6Papyro24MetadataResolutionFutureC2ERK4QMapI7QString8QVariantERKS2_
libpapyro.so:_ZN6Papyro24SelectionProcessorAction11onTriggeredEv
libpapyro.so:_ZN6Papyro24SelectionProcessorAction11qt_metacallEN11QMetaObject4CallEiPPv
libpapyro.so:_ZN6Papyro24SelectionProcessorAction11qt_metacastEPKc
libpapyro.so:_ZN6Papyro24SelectionProcessorActionC1EN5boost10shared_ptrINS_18SelectionProcessorEEENS2_IN5Spine8DocumentEEENS2_INS5_6CursorEEEP7QObject
libpapyro.so:_ZN6Papyro24SelectionProcessorActionC2EN5boost10shared_ptrINS_18SelectionProcessorEEENS2_IN5Spine8DocumentEEENS2_INS5_6CursorEEEP7QObject
libpapyro.so:_ZN6Papyro25AnnotationProcessorAction11onTriggeredEv
libpapyro.so:_ZN6Papyro25AnnotationProcessorAction11qt_metacallEN11QMetaObject4CallEiPPv
libpapyro.so:_ZN6Papyro25AnnotationProcessorAction11qt_metacastEPKc
libpapyro.so:_ZN6Papyro25AnnotationProcessorActionC1EPNS_19AnnotationProcessorEN5boost10shared_ptrIN5Spine8DocumentEEESt3setINS4_INS5_10AnnotationEEESt4lessISA_ESaISA_EEP7QObject
libpapyro.so:_ZN6Papyro25AnnotationProcessorActionC2EPNS_19AnnotationProcessorEN5boost10shared_ptrIN5Spine8DocumentEEESt3setINS4_INS5_10AnnotationEEESt4lessISA_ESaISA_EEP7QObject
libpapyro.so:_ZN6Papyro25AnnotationProcessorActionD0Ev
libpapyro.so:_ZN6Papyro25AnnotationProcessorActionD1Ev
libpapyro.so:_ZN6Papyro25AnnotationProcessorActionD2Ev
libpapyro.so:_ZN6Papyro25MarginaliaOverlayRenderer6boundsEN5boost10shared_ptrIN5Spine8DocumentEEENS2_INS3_10AnnotationEEE
libpapyro.so:_ZN6Papyro25MarginaliaOverlayRenderer6renderEN5boost10shared_ptrIN5Spine8DocumentEEERKSt3setINS2_INS3_10AnnotationEEESt4lessIS8_ESaIS8_EENS_15OverlayRenderer5StateE
libpapyro.so:_ZN6Papyro25MarginaliaOverlayRendererC2Ev
libpapyro.so:_ZN6Papyro25SelectionProcessorFactory16hasAreaSelectionEN5boost10shared_ptrIN5Spine8DocumentEEENS2_INS3_6CursorEEE
libpapyro.so:_ZN6Papyro25SelectionProcessorFactory16hasTextSelectionEN5boost10shared_ptrIN5Spine8DocumentEEENS2_INS3_6CursorEEE
libpapyro.so:_ZN6Papyro25SelectionProcessorFactory8hasImageEN5boost10shared_ptrIN5Spine8DocumentEEENS2_INS3_6CursorEEE
libpapyro.so:_ZN6Papyro27AnnotationResultItemPrivate11qt_metacallEN11QMetaObject4CallEiPPv
libpapyro.so:_ZN6Papyro27AnnotationResultItemPrivate11qt_metacastEPKc
libpapyro.so:_ZN6Papyro27AnnotationResultItemPrivate12stateChangedENS_10ResultItem5StateE
libpapyro.so:_ZN6Papyro27AnnotationResultItemPrivate14contentChangedERK7QString
libpapyro.so:_ZN6Papyro27AnnotationResultItemPrivate14receiveContentE7QString11QStringList
libpapyro.so:_ZN6Papyro27AnnotationResultItemPrivate8setStateENS_10ResultItem5StateE
libpapyro.so:_ZN6Papyro27AnnotationResultItemPrivateC1EN5boost10shared_ptrIN5Spine10AnnotationEEEPNS_20AnnotationResultItemE
libpapyro.so:_ZN6Papyro27AnnotationResultItemPrivateC2EN5boost10shared_ptrIN5Spine10AnnotationEEEPNS_20AnnotationResultItemE
libpapyro.so:_ZN6Papyro28ConceptOverlayRendererMapperC1ERK7QStringS3_
libpapyro.so:_ZN6Papyro28ConceptOverlayRendererMapperC2ERK7QStringS3_
libpapyro.so:_ZN6Papyro28SvgMarginaliaOverlayRenderer9drawImageEP8QPainter6QRectF
libpapyro.so:_ZN6Papyro28SvgMarginaliaOverlayRendererC2ERK7QString
libpapyro.so:_ZN6Papyro29PropertyOverlayRendererMapper11setCriteriaERK4QMapI7QString8QVariantE
libpapyro.so:_ZN6Papyro29PropertyOverlayRendererMapper5setIdERK7QString
libpapyro.so:_ZN6Papyro29PropertyOverlayRendererMapperC1ERK4QMapI7QString8QVariantERKS2_
libpapyro.so:_ZN6Papyro29PropertyOverlayRendererMapperC2ERK4QMapI7QString8QVariantERKS2_
libpapyro.so:_ZN6Papyro30ImageMarginaliaOverlayRenderer9drawImageEP8QPainter6QRectF
libpapyro.so:_ZN6Papyro30ImageMarginaliaOverlayRendererC2ERK7QString
libpapyro.so:_ZN6Papyro5Pager10initialiseEv
libpapyro.so:_ZN6Papyro5Pager10paintEventEP11QPaintEvent
libpapyro.so:_ZN6Papyro5Pager10wheelEventEP11QWheelEvent
libpapyro.so:_ZN6Papyro5Pager11pageClickedEi
libpapyro.so:_ZN6Papyro5Pager11qt_metacallEN11QMetaObject4CallEiPPv
libpapyro.so:_ZN6Papyro5Pager11qt_metacastEPKc
libpapyro.so:_ZN6Papyro5Pager11resizeEventEP12QResizeEvent
libpapyro.so:_ZN6Papyro5Pager12focusChangedEi
libpapyro.so:_ZN6Papyro5Pager13setDrawLabelsEb
libpapyro.so:_ZN6Papyro5Pager13setSpotlightsERK4QMapIiiE
libpapyro.so:_ZN6Papyro5Pager14drawSearchHitsEP8QPainteri5QRect
libpapyro.so:_ZN6Papyro5Pager14hideSpotlightsEb
libpapyro.so:_ZN6Papyro5Pager14setAnnotationsERK4QMapIiiE
libpapyro.so:_ZN6Papyro5Pager14setBoundingBoxERK5QSize
libpapyro.so:_ZN6Papyro5Pager14setOrientationEN2Qt11OrientationE
libpapyro.so:_ZN6Papyro5Pager15clearAnnotationEi
libpapyro.so:_ZN6Papyro5Pager17drawAnnotationTagEP8QPainter5QRect
libpapyro.so:_ZN6Papyro5Pager17mouseReleaseEventEP11QMouseEvent
libpapyro.so:_ZN6Papyro5Pager18setContentsMarginsEiiii
libpapyro.so:_ZN6Papyro5Pager4lastEv
libpapyro.so:_ZN6Papyro5Pager4nextEi
libpapyro.so:_ZN6Papyro5Pager5clearEv
libpapyro.so:_ZN6Papyro5Pager5firstEv
libpapyro.so:_ZN6Papyro5Pager5focusEi
libpapyro.so:_ZN6Papyro5Pager6appendERK7QPixmap
libpapyro.so:_ZN6Papyro5Pager6insertEiRK7QPixmap
libpapyro.so:_ZN6Papyro5Pager6removeEi
libpapyro.so:_ZN6Papyro5Pager6renameEiRK7QString
libpapyro.so:_ZN6Papyro5Pager7animateEv
libpapyro.so:_ZN6Papyro5Pager7replaceEiRK7QPixmap
libpapyro.so:_ZN6Papyro5Pager8previousEi
libpapyro.so:_ZN6Papyro5Pager9setSpreadEd
libpapyro.so:_ZN6Papyro5PagerC1EN2Qt11OrientationERK5QListI7QPixmapEP7QWidget
libpapyro.so:_ZN6Papyro5PagerC1EN2Qt11OrientationEiP7QWidget
libpapyro.so:_ZN6Papyro5PagerC1EP7QWidget
libpapyro.so:_ZN6Papyro5PagerC2EN2Qt11OrientationERK5QListI7QPixmapEP7QWidget
libpapyro.so:_ZN6Papyro5PagerC2EN2Qt11OrientationEiP7QWidget
libpapyro.so:_ZN6Papyro5PagerC2EP7QWidget
libpapyro.so:_ZN6Papyro5PagerD0Ev
libpapyro.so:_ZN6Papyro5PagerD1Ev
libpapyro.so:_ZN6Papyro5PagerD2Ev
libpapyro.so:_ZN6Papyro6Sliver10clearTitleEv
libpapyro.so:_ZN6Papyro6Sliver11qt_metacallEN11QMetaObject4CallEiPPv
libpapyro.so:_ZN6Papyro6Sliver11qt_metacastEPKc
libpapyro.so:_ZN6Papyro6Sliver12setTaskColorERK6QColor
libpapyro.so:_ZN6Papyro6Sliver12titleChangedERK7QString
libpapyro.so:_ZN6Papyro6Sliver8setTitleERK7QString
libpapyro.so:_ZN6Papyro6SliverC1EN2Qt11OrientationEP7QWidget
libpapyro.so:_ZN6Papyro6SliverC1EP7QWidget
libpapyro.so:_ZN6Papyro6SliverC2EN2Qt11OrientationEP7QWidget
libpapyro.so:_ZN6Papyro6SliverC2EP7QWidget
libpapyro.so:_ZN6Papyro6TabBar10enterEventEP6QEvent
libpapyro.so:_ZN6Papyro6TabBar10leaveEventEP6QEvent
libpapyro.so:_ZN6Papyro6TabBar10paintEventEP11QPaintEvent
libpapyro.so:_ZN6Papyro6TabBar10tabRemovedEPNS_9PapyroTabE
libpapyro.so:_ZN6Papyro6TabBar10tabRemovedEi
libpapyro.so:_ZN6Papyro6TabBar10wheelEventEP11QWheelEvent
libpapyro.so:_ZN6Papyro6TabBar11previousTabEv
libpapyro.so:_ZN6Papyro6TabBar11qt_metacallEN11QMetaObject4CallEiPPv
libpapyro.so:_ZN6Papyro6TabBar11qt_metacastEPKc
libpapyro.so:_ZN6Papyro6TabBar13layoutChangedEv
libpapyro.so:_ZN6Papyro6TabBar14closeRequestedEi
libpapyro.so:_ZN6Papyro6TabBar14mouseMoveEventEP11QMouseEvent
libpapyro.so:_ZN6Papyro6TabBar14starredToggledEb
libpapyro.so:_ZN6Papyro6TabBar15mousePressEventEP11QMouseEvent
libpapyro.so:_ZN6Papyro6TabBar15setCurrentIndexEi
libpapyro.so:_ZN6Papyro6TabBar17mouseReleaseEventEP11QMouseEvent
libpapyro.so:_ZN6Papyro6TabBar18tabMetadataChangedEi
libpapyro.so:_ZN6Papyro6TabBar19currentIndexChangedEi
libpapyro.so:_ZN6Papyro6TabBar5eventEP6QEvent
libpapyro.so:_ZN6Papyro6TabBar6addTabEPNS_9PapyroTabE
libpapyro.so:_ZN6Papyro6TabBar7nextTabEv
libpapyro.so:_ZN6Papyro6TabBar8tabAddedEPNS_9PapyroTabE
libpapyro.so:_ZN6Papyro6TabBar8tabAddedEi
libpapyro.so:_ZN6Papyro6TabBar9removeTabEi
libpapyro.so:_ZN6Papyro6TabBarC1EP7QWidget6QFlagsIN2Qt10WindowTypeEE
libpapyro.so:_ZN6Papyro6TabBarC2EP7QWidget6QFlagsIN2Qt10WindowTypeEE
libpapyro.so:_ZN6Papyro6TabBarD0Ev
libpapyro.so:_ZN6Papyro6TabBarD1Ev
libpapyro.so:_ZN6Papyro6TabBarD2Ev
libpapyro.so:_ZN6Papyro7Printer11qt_metacallEN11QMetaObject4CallEiPPv
libpapyro.so:_ZN6Papyro7Printer11qt_metacastEPKc
libpapyro.so:_ZN6Papyro7Printer5printEN5boost10shared_ptrIN5Spine8DocumentEEEP7QWidget
libpapyro.so:_ZN6Papyro7Printer8instanceEv
libpapyro.so:_ZN6Papyro7PrinterC1EP7QObject
libpapyro.so:_ZN6Papyro7PrinterC2EP7QObject
libpapyro.so:_ZN6Papyro7PrinterD0Ev
libpapyro.so:_ZN6Papyro7PrinterD1Ev
libpapyro.so:_ZN6Papyro7PrinterD2Ev
libpapyro.so:_ZN6Papyro7Sidebar11qt_metacallEN11QMetaObject4CallEiPPv
libpapyro.so:_ZN6Papyro7Sidebar11qt_metacastEPKc
libpapyro.so:_ZN6Papyro7Sidebar12termExploredERK7QString
libpapyro.so:_ZN6Papyro7Sidebar12urlRequestedERK4QUrlRK7QString
libpapyro.so:_ZN6Papyro7Sidebar13lookupStartedEv
libpapyro.so:_ZN6Papyro7Sidebar13lookupStoppedEv
libpapyro.so:_ZN6Papyro7Sidebar13setSearchTermERK7QString
libpapyro.so:_ZN6Papyro7Sidebar16copySelectedTextEv
libpapyro.so:_ZN6Papyro7Sidebar16selectionChangedEv
libpapyro.so:_ZN6Papyro7Sidebar16setDocumentProxyEPNS_13DocumentProxyE
libpapyro.so:_ZN6Papyro7Sidebar18citationsActivatedERK5QListI8QVariantERK7QString
libpapyro.so:_ZN6Papyro7Sidebar18onSelectionChangedEv
libpapyro.so:_ZN6Papyro7Sidebar5clearEv
libpapyro.so:_ZN6Papyro7Sidebar7setModeENS0_11SidebarModeE
libpapyro.so:_ZN6Papyro7SidebarC1EP7QWidget
libpapyro.so:_ZN6Papyro7SidebarC2EP7QWidget
libpapyro.so:_ZN6Papyro7flattenERK5QListI8QVariantE
libpapyro.so:_ZN6Papyro7refspecERK7QStringS2_
libpapyro.so:_ZN6Papyro8PageView10leaveEventEP6QEvent
libpapyro.so:_ZN6Papyro8PageView10paintEventEP11QPaintEvent
libpapyro.so:_ZN6Papyro8PageView11_initialiseEv
libpapyro.so:_ZN6Papyro8PageView11pageRotatedEv
libpapyro.so:_ZN6Papyro8PageView11qt_metacallEN11QMetaObject4CallEiPPv
libpapyro.so:_ZN6Papyro8PageView11qt_metacastEPKc
libpapyro.so:_ZN6Papyro8PageView11resizeEventEP12QResizeEvent
libpapyro.so:_ZN6Papyro8PageView11saveImageAsEv
libpapyro.so:_ZN6Papyro8PageView11setRotationEi
libpapyro.so:_ZN6Papyro8PageView12pageSelectedEPKN5Spine4PageE
libpapyro.so:_ZN6Papyro8PageView12resizeToSizeERK5QSize
libpapyro.so:_ZN6Papyro8PageView12urlRequestedERK4QUrlRK7QString
libpapyro.so:_ZN6Papyro8PageView13dragMoveEventEP14QDragMoveEvent
libpapyro.so:_ZN6Papyro8PageView13resizeToWidthEi
libpapyro.so:_ZN6Papyro8PageView13setSpotlightsERKSt3setIN5boost10shared_ptrIN5Spine10TextExtentEEENS4_13ExtentCompareIS5_EESaIS6_EE
libpapyro.so:_ZN6Papyro8PageView14dragEnterEventEP15QDragEnterEvent
libpapyro.so:_ZN6Papyro8PageView14hideSpotlightsEb
libpapyro.so:_ZN6Papyro8PageView14publishChangesEv
libpapyro.so:_ZN6Papyro8PageView14resizeToHeightEi
libpapyro.so:_ZN6Papyro8PageView15clearSpotlightsEv
libpapyro.so:_ZN6Papyro8PageView15manageSelectionEv
libpapyro.so:_ZN6Papyro8PageView15setVerticalZoomEd
libpapyro.so:_ZN6Papyro8PageView16contextMenuEventEP17QContextMenuEvent
libpapyro.so:_ZN6Papyro8PageView16copyEmailAddressEv
libpapyro.so:_ZN6Papyro8PageView16copySelectedTextEv
libpapyro.so:_ZN6Papyro8PageView16deleteAnnotationERK7QString
libpapyro.so:_ZN6Papyro8PageView16exploreSelectionEv
libpapyro.so:_ZN6Papyro8PageView17recomputeDarknessEv
libpapyro.so:_ZN6Papyro8PageView17setHorizontalZoomEd
libpapyro.so:_ZN6Papyro8PageView17updateAnnotationsERKNSt7__cxx1112basic_stringIcSt11char_traitsIcESaIcEEERKSt3setIN5boost10shared_ptrIN5Spine10AnnotationEEESt4lessISE_ESaISE_EEb
libpapyro.so:_ZN6Papyro8PageView18setActiveSpotlightEN5boost10shared_ptrIN5Spine10TextExtentEEE
libpapyro.so:_ZN6Papyro8PageView19clearTemporaryFocusEv
libpapyro.so:_ZN6Papyro8PageView19executePhraseLookupEi
libpapyro.so:_ZN6Papyro8PageView19onMousePressTimeoutEv
libpapyro.so:_ZN6Papyro8PageView19updateAreaSelectionERKNSt7__cxx1112basic_stringIcSt11char_traitsIcESaIcEEERKSt3setIN5Spine4AreaESt4lessISB_ESaISB_EEb
libpapyro.so:_ZN6Papyro8PageView19updateTextSelectionERKNSt7__cxx1112basic_stringIcSt11char_traitsIcESaIcEEERKSt3setIN5boost10shared_ptrIN5Spine10TextExtentEEENSC_13ExtentCompareISD_EESaISE_EEb
libpapyro.so:_ZN6Papyro8PageView20clearActiveSpotlightEv
libpapyro.so:_ZN6Papyro8PageView20renderThreadFinishedEv
libpapyro.so:_ZN6Papyro8PageView21populateContextMenuAtEP5QMenuRK6QPoint
libpapyro.so:_ZN6Papyro8PageView23manageExpandedSelectionEv
libpapyro.so:_ZN6Papyro8PageView23recomputeTemporaryFocusEv
libpapyro.so:_ZN6Papyro8PageView5clearEv
libpapyro.so:_ZN6Papyro8PageView5eventEP6QEvent
libpapyro.so:_ZN6Papyro8PageView6asPathERKN5Spine13TextSelectionEi
libpapyro.so:_ZN6Papyro8PageView6asPathERKN5boost10shared_ptrIN5Spine10TextExtentEEEi
libpapyro.so:_ZN6Papyro8PageView7setPageEN5boost10shared_ptrIN5Spine8DocumentEEEi
libpapyro.so:_ZN6Papyro8PageView7setPageEi
libpapyro.so:_ZN6Papyro8PageView7setZoomEd
libpapyro.so:_ZN6Papyro8PageView9dropEventEP10QDropEvent
libpapyro.so:_ZN6Papyro8PageView9pageImageE5QSize6QColor
libpapyro.so:_ZN6Papyro8PageViewC1EN5boost10shared_ptrIN5Spine8DocumentEEEiP7QWidget6QFlagsIN2Qt10WindowTypeEE
libpapyro.so:_ZN6Papyro8PageViewC1EP7QWidget6QFlagsIN2Qt10WindowTypeEE
libpapyro.so:_ZN6Papyro8PageViewC2EN5boost10shared_ptrIN5Spine8DocumentEEEiP7QWidget6QFlagsIN2Qt10WindowTypeEE
libpapyro.so:_ZN6Papyro8PageViewC2EP7QWidget6QFlagsIN2Qt10WindowTypeEE
libpapyro.so:_ZN6Papyro8PageViewD0Ev
libpapyro.so:_ZN6Papyro8PageViewD1Ev
libpapyro.so:_ZN6Papyro8PageViewD2Ev
libpapyro.so:_ZN6Papyro9CSLEngine11qt_metacallEN11QMetaObject4CallEiPPv
libpapyro.so:_ZN6Papyro9CSLEngine11qt_metacastEPKc
libpapyro.so:_ZN6Papyro9CSLEngine15setDefaultStyleERK7QString
libpapyro.so:_ZN6Papyro9CSLEngine6formatERK4QMapI7QString8QVariantERKS2_
libpapyro.so:_ZN6Papyro9CSLEngine8instanceEv
libpapyro.so:_ZN6Papyro9CSLEngineC1EP7QObject
libpapyro.so:_ZN6Papyro9CSLEngineC2EP7QObject
libpapyro.so:_ZN6Papyro9CSLEngineD0Ev
libpapyro.so:_ZN6Papyro9CSLEngineD1Ev
libpapyro.so:_ZN6Papyro9CSLEngineD2Ev
libpapyro.so:_ZN6Papyro9PapyroTab10closeEventEP11QCloseEvent
libpapyro.so:_ZN6Papyro9PapyroTab10requestUrlERK4QUrlRK7QString
libpapyro.so:_ZN6Papyro9PapyroTab10setStarredEb
libpapyro.so:_ZN6Papyro9PapyroTab10urlChangedERK4QUrl
libpapyro.so:_ZN6Papyro9PapyroTab11qt_metacallEN11QMetaObject4CallEiPPv
libpapyro.so:_ZN6Papyro9PapyroTab11qt_metacastEPKc
libpapyro.so:_ZN6Papyro9PapyroTab11quickSearchEv
libpapyro.so:_ZN6Papyro9PapyroTab11resizeEventEP12QResizeEvent
libpapyro.so:_ZN6Papyro9PapyroTab11setCitationEN5boost10shared_ptrIN9Athenaeum8CitationEEE
libpapyro.so:_ZN6Papyro9PapyroTab11setProgressEd
libpapyro.so:_ZN6Papyro9PapyroTab12addToLibraryEv
libpapyro.so:_ZN6Papyro9PapyroTab12errorChangedERK7QString
libpapyro.so:_ZN6Papyro9PapyroTab12knownChangedEb
libpapyro.so:_ZN6Papyro9PapyroTab12stateChangedENS0_5StateE
libpapyro.so:_ZN6Papyro9PapyroTab12titleChangedERK7QString
libpapyro.so:_ZN6Papyro9PapyroTab12urlRequestedERK4QUrlRK7QString
libpapyro.so:_ZN6Papyro9PapyroTab14closeRequestedEv
libpapyro.so:_ZN6Papyro9PapyroTab14loadingChangedEb
libpapyro.so:_ZN6Papyro9PapyroTab14publishChangesEv
libpapyro.so:_ZN6Papyro9PapyroTab14starredChangedEb
libpapyro.so:_ZN6Papyro9PapyroTab15citationChangedEv
libpapyro.so:_ZN6Papyro9PapyroTab15documentChangedEv
libpapyro.so:_ZN6Papyro9PapyroTab15progressChangedEd
libpapyro.so:_ZN6Papyro9PapyroTab15quickSearchNextEv
libpapyro.so:_ZN6Papyro9PapyroTab16copySelectedTextEv
libpapyro.so:_ZN6Papyro9PapyroTab16exploreSelectionEv
libpapyro.so:_ZN6Papyro9PapyroTab17removeFromLibraryEv
libpapyro.so:_ZN6Papyro9PapyroTab18citationsActivatedERK5QListI8QVariantERK7QString
libpapyro.so:_ZN6Papyro9PapyroTab19quickSearchPreviousEv
libpapyro.so:_ZN6Papyro9PapyroTab20visualiseAnnotationsERKSt3setIN5boost10shared_ptrIN5Spine10AnnotationEEESt4lessIS6_ESaIS6_EE
libpapyro.so:_ZN6Papyro9PapyroTab22contextMenuAboutToShowEP5QMenu
libpapyro.so:_ZN6Papyro9PapyroTab28setSelectionProcessorActionsERK5QListIPNS_24SelectionProcessorActionEE
libpapyro.so:_ZN6Papyro9PapyroTab33setActiveSelectionProcessorActionEPNS_24SelectionProcessorActionE
libpapyro.so:_ZN6Papyro9PapyroTab35clearActiveSelectionProcessorActionEv
libpapyro.so:_ZN6Papyro9PapyroTab4openEN5boost10shared_ptrIN5Spine8DocumentEEERK4QMapI7QString8QVariantENS2_IN9Athenaeum8CitationEEE
libpapyro.so:_ZN6Papyro9PapyroTab4openEN5boost10shared_ptrIN9Athenaeum8CitationEEERK4QMapI7QString8QVariantE
libpapyro.so:_ZN6Papyro9PapyroTab4openEP9QIODeviceRK4QMapI7QString8QVariantEN5boost10shared_ptrIN9Athenaeum8CitationEEE
libpapyro.so:_ZN6Papyro9PapyroTab4openERK4QUrlRK4QMapI7QString8QVariantEN5boost10shared_ptrIN9Athenaeum8CitationEEE
libpapyro.so:_ZN6Papyro9PapyroTab4openERK7QStringRK4QMapIS1_8QVariantEN5boost10shared_ptrIN9Athenaeum8CitationEEE
libpapyro.so:_ZN6Papyro9PapyroTab4starEv
libpapyro.so:_ZN6Papyro9PapyroTab5clearEv
libpapyro.so:_ZN6Papyro9PapyroTab6setUrlERK4QUrl
libpapyro.so:_ZN6Papyro9PapyroTab6unstarEv
libpapyro.so:_ZN6Papyro9PapyroTab8documentEv
libpapyro.so:_ZN6Papyro9PapyroTab8setTitleERK7QString
libpapyro.so:_ZN6Papyro9PapyroTabC1EP7QWidget
libpapyro.so:_ZN6Papyro9PapyroTabC2EP7QWidget
libpapyro.so:_ZN6Papyro9PapyroTabD0Ev
libpapyro.so:_ZN6Papyro9PapyroTabD1Ev
libpapyro.so:_ZN6Papyro9PapyroTabD2Ev
libpapyro.so:_ZN6Papyro9SearchBar10textEditedEv
libpapyro.so:_ZN6Papyro9SearchBar11clearSearchEv
libpapyro.so:_ZN6Papyro9SearchBar11qt_metacallEN11QMetaObject4CallEiPPv
libpapyro.so:_ZN6Papyro9SearchBar11qt_metacastEPKc
libpapyro.so:_ZN6Papyro9SearchBar13searchForTextE7QString
libpapyro.so:_ZN6Papyro9SearchBar13timerCompleteEv
libpapyro.so:_ZN6Papyro9SearchBar14searchReturnedEi
libpapyro.so:_ZN6Papyro9SearchBar4nextEv
libpapyro.so:_ZN6Papyro9SearchBar5focusEv
libpapyro.so:_ZN6Papyro9SearchBar6failedEi
libpapyro.so:_ZN6Papyro9SearchBar8previousEv
libpapyro.so:_ZN6Papyro9SearchBar9hideEventEP10QHideEvent
libpapyro.so:_ZN6Papyro9SearchBar9showEventEP10QShowEvent
libpapyro.so:_ZN6Papyro9SearchBarC1EP7QWidget
libpapyro.so:_ZN6Papyro9SearchBarC2EP7QWidget
libpapyro.so:_ZN9Athenaeum10Collection10insertRowsEiiRK11QModelIndex
libpapyro.so:_ZN9Athenaeum10Collection10removeItemEN5boost10shared_ptrINS_8CitationEEE
libpapyro.so:_ZN9Athenaeum10Collection10removeRowsEiiRK11QModelIndex
libpapyro.so:_ZN9Athenaeum10Collection10takeItemAtEi
libpapyro.so:_ZN9Athenaeum10Collection11appendItemsERK7QVectorIN5boost10shared_ptrINS_8CitationEEEE
libpapyro.so:_ZN9Athenaeum10Collection11insertItemsEN5boost10shared_ptrINS_8CitationEEERK7QVectorIS4_E
libpapyro.so:_ZN9Athenaeum10Collection11qt_metacallEN11QMetaObject4CallEiPPv
libpapyro.so:_ZN9Athenaeum10Collection11qt_metacastEPKc
libpapyro.so:_ZN9Athenaeum10Collection11setProgressEd
libpapyro.so:_ZN9Athenaeum10Collection11setReadOnlyEb
libpapyro.so:_ZN9Athenaeum10Collection12dropMimeDataEPK9QMimeDataN2Qt10DropActionEiiRK11QModelIndex
libpapyro.so:_ZN9Athenaeum10Collection12prependItemsERK7QVectorIN5boost10shared_ptrINS_8CitationEEEE
libpapyro.so:_ZN9Athenaeum10Collection12stateChangedENS_20AbstractBibliography5StateE
libpapyro.so:_ZN9Athenaeum10Collection12titleChangedE7QString
libpapyro.so:_ZN9Athenaeum10Collection15progressChangedEd
libpapyro.so:_ZN9Athenaeum10Collection19setPersistenceModelEPNS_16PersistenceModelE
libpapyro.so:_ZN9Athenaeum10Collection5clearEv
libpapyro.so:_ZN9Athenaeum10Collection7setDataERK11QModelIndexRK8QVarianti
libpapyro.so:_ZN9Athenaeum10Collection8setStateENS_20AbstractBibliography5StateE
libpapyro.so:_ZN9Athenaeum10Collection8setTitleERK7QString
libpapyro.so:_ZN9Athenaeum10CollectionC1EPNS_20AbstractBibliographyEP7QObject
libpapyro.so:_ZN9Athenaeum10CollectionC2EPNS_20AbstractBibliographyEP7QObject
libpapyro.so:_ZN9Athenaeum10CollectionD0Ev
libpapyro.so:_ZN9Athenaeum10CollectionD1Ev
libpapyro.so:_ZN9Athenaeum10CollectionD2Ev
libpapyro.so:_ZN9Athenaeum10TextFilter11qt_metacallEN11QMetaObject4CallEiPPv
libpapyro.so:_ZN9Athenaeum10TextFilter11qt_metacastEPKc
libpapyro.so:_ZN9Athenaeum10TextFilter14setFixedStringERK7QString
libpapyro.so:_ZN9Athenaeum10TextFilter7setRoleEi
libpapyro.so:_ZN9Athenaeum10TextFilter9setColumnEi
libpapyro.so:_ZN9Athenaeum10TextFilter9setRegExpERK7QRegExp
libpapyro.so:_ZN9Athenaeum10TextFilterC1ERK7QRegExpiiP7QObject
libpapyro.so:_ZN9Athenaeum10TextFilterC1ERK7QStringiiP7QObject
libpapyro.so:_ZN9Athenaeum10TextFilterC2ERK7QRegExpiiP7QObject
libpapyro.so:_ZN9Athenaeum10TextFilterC2ERK7QStringiiP7QObject
libpapyro.so:_ZN9Athenaeum10TextFilterD0Ev
libpapyro.so:_ZN9Athenaeum10TextFilterD1Ev
libpapyro.so:_ZN9Athenaeum10TextFilterD2Ev
libpapyro.so:_ZN9Athenaeum11ArticleView10paintEventEP11QPaintEvent
libpapyro.so:_ZN9Athenaeum11ArticleView11dataChangedERK11QModelIndexS3_RK7QVectorIiE
libpapyro.so:_ZN9Athenaeum11ArticleView11qt_metacallEN11QMetaObject4CallEiPPv
libpapyro.so:_ZN9Athenaeum11ArticleView11qt_metacastEPKc
libpapyro.so:_ZN9Athenaeum11ArticleView13viewportEventEP6QEvent
libpapyro.so:_ZN9Athenaeum11ArticleView16articleActivatedERK11QModelIndexb
libpapyro.so:_ZN9Athenaeum11ArticleView16contextMenuEventEP17QContextMenuEvent
libpapyro.so:_ZN9Athenaeum11ArticleView16previewRequestedERK11QModelIndex
libpapyro.so:_ZN9Athenaeum11ArticleView17articlesActivatedERK5QListI11QModelIndexEb
libpapyro.so:_ZN9Athenaeum11ArticleView5resetEv
libpapyro.so:_ZN9Athenaeum11ArticleViewC1EP7QWidget
libpapyro.so:_ZN9Athenaeum11ArticleViewC2EP7QWidget
libpapyro.so:_ZN9Athenaeum11ArticleViewD0Ev
libpapyro.so:_ZN9Athenaeum11ArticleViewD1Ev
libpapyro.so:_ZN9Athenaeum11ArticleViewD2Ev
libpapyro.so:_ZN9Athenaeum11LibraryView10paintEventEP11QPaintEvent
libpapyro.so:_ZN9Athenaeum11LibraryView11qt_metacallEN11QMetaObject4CallEiPPv
libpapyro.so:_ZN9Athenaeum11LibraryView11qt_metacastEPKc
libpapyro.so:_ZN9Athenaeum11LibraryView12rowsInsertedERK11QModelIndexii
libpapyro.so:_ZN9Athenaeum11LibraryView12setDropColorERK6QColor
libpapyro.so:_ZN9Athenaeum11LibraryViewC1EP7QWidget
libpapyro.so:_ZN9Athenaeum11LibraryViewC2EP7QWidget
libpapyro.so:_ZN9Athenaeum11LibraryViewD0Ev
libpapyro.so:_ZN9Athenaeum11LibraryViewD1Ev
libpapyro.so:_ZN9Athenaeum11LibraryViewD2Ev
libpapyro.so:_ZN9Athenaeum11RemoteQuery11qt_metacallEN11QMetaObject4CallEiPPv
libpapyro.so:_ZN9Athenaeum11RemoteQuery11qt_metacastEPKc
libpapyro.so:_ZN9Athenaeum11RemoteQuery21setPersistentPropertyERK7QStringRK8QVariant
libpapyro.so:_ZN9Athenaeum11RemoteQuery7fetchedENS_20RemoteQueryResultSetE
libpapyro.so:_ZN9Athenaeum11RemoteQueryC2EP7QObject
libpapyro.so:_ZN9Athenaeum11RemoteQueryD0Ev
libpapyro.so:_ZN9Athenaeum11RemoteQueryD1Ev
libpapyro.so:_ZN9Athenaeum11RemoteQueryD2Ev
libpapyro.so:_ZN9Athenaeum11ResolverJobC1EN5boost10shared_ptrINS_8CitationEEE6QFlagsINS_8Resolver7PurposeEENS2_IN5Spine8DocumentEEE
libpapyro.so:_ZN9Athenaeum11ResolverJobC2EN5boost10shared_ptrINS_8CitationEEE6QFlagsINS_8Resolver7PurposeEENS2_IN5Spine8DocumentEEE
libpapyro.so:_ZN9Athenaeum12Bibliography10insertRowsEiiRK11QModelIndex
libpapyro.so:_ZN9Athenaeum12Bibliography10removeItemEN5boost10shared_ptrINS_8CitationEEE
libpapyro.so:_ZN9Athenaeum12Bibliography10removeRowsEiiRK11QModelIndex
libpapyro.so:_ZN9Athenaeum12Bibliography10takeItemAtEi
libpapyro.so:_ZN9Athenaeum12Bibliography11appendItemsERK7QVectorIN5boost10shared_ptrINS_8CitationEEEE
libpapyro.so:_ZN9Athenaeum12Bibliography11insertItemsEN5boost10shared_ptrINS_8CitationEEERK7QVectorIS4_E
libpapyro.so:_ZN9Athenaeum12Bibliography11qt_metacallEN11QMetaObject4CallEiPPv
libpapyro.so:_ZN9Athenaeum12Bibliography11qt_metacastEPKc
libpapyro.so:_ZN9Athenaeum12Bibliography11setProgressEd
libpapyro.so:_ZN9Athenaeum12Bibliography11setReadOnlyEb
libpapyro.so:_ZN9Athenaeum12Bibliography12dropMimeDataEPK9QMimeDataN2Qt10DropActionEiiRK11QModelIndex
libpapyro.so:_ZN9Athenaeum12Bibliography12prependItemsERK7QVectorIN5boost10shared_ptrINS_8CitationEEEE
libpapyro.so:_ZN9Athenaeum12Bibliography12stateChangedENS_20AbstractBibliography5StateE
libpapyro.so:_ZN9Athenaeum12Bibliography12titleChangedE7QString
libpapyro.so:_ZN9Athenaeum12Bibliography15progressChangedEd
libpapyro.so:_ZN9Athenaeum12Bibliography19setPersistenceModelEPNS_16PersistenceModelE
libpapyro.so:_ZN9Athenaeum12Bibliography5clearEv
libpapyro.so:_ZN9Athenaeum12Bibliography7setDataERK11QModelIndexRK8QVarianti
libpapyro.so:_ZN9Athenaeum12Bibliography8setStateENS_20AbstractBibliography5StateE
libpapyro.so:_ZN9Athenaeum12Bibliography8setTitleERK7QString
libpapyro.so:_ZN9Athenaeum12BibliographyC1EP7QObject
libpapyro.so:_ZN9Athenaeum12BibliographyC2EP7QObject
libpapyro.so:_ZN9Athenaeum12BibliographyD0Ev
libpapyro.so:_ZN9Athenaeum12BibliographyD1Ev
libpapyro.so:_ZN9Athenaeum12BibliographyD2Ev
libpapyro.so:_ZN9Athenaeum12LibraryModel10insertRowsEiiRK11QModelIndex
libpapyro.so:_ZN9Athenaeum12LibraryModel10removeRowsEiiRK11QModelIndex
libpapyro.so:_ZN9Athenaeum12LibraryModel11acceptsDropERK11QModelIndexbPK9QMimeData
libpapyro.so:_ZN9Athenaeum12LibraryModel11appendModelEP18QAbstractItemModel
libpapyro.so:_ZN9Athenaeum12LibraryModel11insertModelEP18QAbstractItemModelS2_
libpapyro.so:_ZN9Athenaeum12LibraryModel11qt_metacallEN11QMetaObject4CallEiPPv
libpapyro.so:_ZN9Athenaeum12LibraryModel11qt_metacastEPKc
libpapyro.so:_ZN9Athenaeum12LibraryModel11removeModelEP18QAbstractItemModel
libpapyro.so:_ZN9Athenaeum12LibraryModel12appendSearchEP18QAbstractItemModel
libpapyro.so:_ZN9Athenaeum12LibraryModel12dropMimeDataEPK9QMimeDataN2Qt10DropActionEiiRK11QModelIndex
libpapyro.so:_ZN9Athenaeum12LibraryModel12insertSearchEP18QAbstractItemModelS2_
libpapyro.so:_ZN9Athenaeum12LibraryModel12removeSearchEP18QAbstractItemModel
libpapyro.so:_ZN9Athenaeum12LibraryModel13hasObjectFileEN5boost10shared_ptrINS_8CitationEEERK7QString
libpapyro.so:_ZN9Athenaeum12LibraryModel13newCollectionERK7QString
libpapyro.so:_ZN9Athenaeum12LibraryModel7setDataERK11QModelIndexRK8QVarianti
libpapyro.so:_ZN9Athenaeum12LibraryModel8instanceEv
libpapyro.so:_ZN9Athenaeum12LibraryModelC1EP7QObject
libpapyro.so:_ZN9Athenaeum12LibraryModelC2EP7QObject
libpapyro.so:_ZN9Athenaeum12LibraryModelD0Ev
libpapyro.so:_ZN9Athenaeum12LibraryModelD1Ev
libpapyro.so:_ZN9Athenaeum12LibraryModelD2Ev
libpapyro.so:_ZN9Athenaeum13ResolverQueue11qt_metacallEN11QMetaObject4CallEiPPv
libpapyro.so:_ZN9Athenaeum13ResolverQueue11qt_metacastEPKc
libpapyro.so:_ZN9Athenaeum13ResolverQueue6cancelEv
libpapyro.so:_ZN9Athenaeum13ResolverQueueC1EPNS_12BibliographyEP7QObject
libpapyro.so:_ZN9Athenaeum13ResolverQueueC2EPNS_12BibliographyEP7QObject
libpapyro.so:_ZN9Athenaeum13ResolverQueueD0Ev
libpapyro.so:_ZN9Athenaeum13ResolverQueueD1Ev
libpapyro.so:_ZN9Athenaeum13ResolverQueueD2Ev
libpapyro.so:_ZN9Athenaeum13StarredFilter11qt_metacallEN11QMetaObject4CallEiPPv
libpapyro.so:_ZN9Athenaeum13StarredFilter11qt_metacastEPKc
libpapyro.so:_ZN9Athenaeum13StarredFilterC1EP7QObject
libpapyro.so:_ZN9Athenaeum13StarredFilterC2EP7QObject
libpapyro.so:_ZN9Athenaeum13get_resolversEv
libpapyro.so:_ZN9Athenaeum14AbstractFilter11qt_metacallEN11QMetaObject4CallEiPPv
libpapyro.so:_ZN9Athenaeum14AbstractFilter11qt_metacastEPKc
libpapyro.so:_ZN9Athenaeum14AbstractFilter13filterChangedEv
libpapyro.so:_ZN9Athenaeum14AbstractFilterC2EP7QObject
libpapyro.so:_ZN9Athenaeum14AbstractFilterD0Ev
libpapyro.so:_ZN9Athenaeum14AbstractFilterD1Ev
libpapyro.so:_ZN9Athenaeum14AbstractFilterD2Ev
libpapyro.so:_ZN9Athenaeum14DateTimeFilter11qt_metacallEN11QMetaObject4CallEiPPv
libpapyro.so:_ZN9Athenaeum14DateTimeFilter11qt_metacastEPKc
libpapyro.so:_ZN9Athenaeum14DateTimeFilter13setDateTimeToERK9QDateTime
libpapyro.so:_ZN9Athenaeum14DateTimeFilter15setDateTimeFromERK9QDateTime
libpapyro.so:_ZN9Athenaeum14DateTimeFilter7setRoleEi
libpapyro.so:_ZN9Athenaeum14DateTimeFilter9setColumnEi
libpapyro.so:_ZN9Athenaeum14DateTimeFilterC1EP7QObject
libpapyro.so:_ZN9Athenaeum14DateTimeFilterC2EP7QObject
libpapyro.so:_ZN9Athenaeum14DateTimeFilterD0Ev
libpapyro.so:_ZN9Athenaeum14DateTimeFilterD1Ev
libpapyro.so:_ZN9Athenaeum14DateTimeFilterD2Ev
libpapyro.so:_ZN9Athenaeum15ArticleDelegate10setFlaggedEi
libpapyro.so:_ZN9Athenaeum15ArticleDelegate11editorEventEP6QEventP18QAbstractItemModelRK20QStyleOptionViewItemRK11QModelIndex
libpapyro.so:_ZN9Athenaeum15ArticleDelegate11qt_metacallEN11QMetaObject4CallEiPPv
libpapyro.so:_ZN9Athenaeum15ArticleDelegate11qt_metacastEPKc
libpapyro.so:_ZN9Athenaeum15ArticleDelegate15updateRequestedEv
libpapyro.so:_ZN9Athenaeum15ArticleDelegate18setMouseEnteredRowEi
libpapyro.so:_ZN9Athenaeum15ArticleDelegateC1EP7QObject
libpapyro.so:_ZN9Athenaeum15ArticleDelegateC2EP7QObject
libpapyro.so:_ZN9Athenaeum15ArticleDelegateD0Ev
libpapyro.so:_ZN9Athenaeum15ArticleDelegateD1Ev
libpapyro.so:_ZN9Athenaeum15ArticleDelegateD2Ev
libpapyro.so:_ZN9Athenaeum15CitationPrivate11qt_metacallEN11QMetaObject4CallEiPPv
libpapyro.so:_ZN9Athenaeum15CitationPrivate11qt_metacastEPKc
libpapyro.so:_ZN9Athenaeum15CitationPrivateC1Eb
libpapyro.so:_ZN9Athenaeum15CitationPrivateC2Eb
libpapyro.so:_ZN9Athenaeum15LibraryDelegate11qt_metacallEN11QMetaObject4CallEiPPv
libpapyro.so:_ZN9Athenaeum15LibraryDelegate11qt_metacastEPKc
libpapyro.so:_ZN9Athenaeum15LibraryDelegateC1EP7QObject
libpapyro.so:_ZN9Athenaeum15LibraryDelegateC2EP7QObject
libpapyro.so:_ZN9Athenaeum15LibraryDelegateD0Ev
libpapyro.so:_ZN9Athenaeum15LibraryDelegateD1Ev
libpapyro.so:_ZN9Athenaeum15LibraryDelegateD2Ev
libpapyro.so:_ZN9Athenaeum16PersistenceModel11qt_metacallEN11QMetaObject4CallEiPPv
libpapyro.so:_ZN9Athenaeum16PersistenceModel11qt_metacastEPKc
libpapyro.so:_ZN9Athenaeum16PersistenceModelC1EP7QObject
libpapyro.so:_ZN9Athenaeum16PersistenceModelC2EP7QObject
libpapyro.so:_ZN9Athenaeum16PersistenceModelD0Ev
libpapyro.so:_ZN9Athenaeum16PersistenceModelD1Ev
libpapyro.so:_ZN9Athenaeum16PersistenceModelD2Ev
libpapyro.so:_ZN9Athenaeum16ResolverRunnable11qt_metacallEN11QMetaObject4CallEiPPv
libpapyro.so:_ZN9Athenaeum16ResolverRunnable11qt_metacastEPKc
libpapyro.so:_ZN9Athenaeum16ResolverRunnable3runEv
libpapyro.so:_ZN9Athenaeum16ResolverRunnable6cancelEv
libpapyro.so:_ZN9Athenaeum16ResolverRunnable6failedEv
libpapyro.so:_ZN9Athenaeum16ResolverRunnable7resolveEN5boost10shared_ptrINS_8CitationEEEP7QObjectPKc6QFlagsINS_8Resolver7PurposeEENS2_IN5Spine8DocumentEEE
libpapyro.so:_ZN9Athenaeum16ResolverRunnable7startedEv
libpapyro.so:_ZN9Athenaeum16ResolverRunnable9cancelledEv
libpapyro.so:_ZN9Athenaeum16ResolverRunnable9completedEN5boost10shared_ptrINS_8CitationEEE
libpapyro.so:_ZN9Athenaeum16ResolverRunnable9completedEv
libpapyro.so:_ZN9Athenaeum16ResolverRunnableC1EN5boost10shared_ptrINS_8CitationEEE6QFlagsINS_8Resolver7PurposeEENS2_IN5Spine8DocumentEEE
libpapyro.so:_ZN9Athenaeum16ResolverRunnableC2EN5boost10shared_ptrINS_8CitationEEE6QFlagsINS_8Resolver7PurposeEENS2_IN5Spine8DocumentEEE
libpapyro.so:_ZN9Athenaeum16ResolverRunnableD0Ev
libpapyro.so:_ZN9Athenaeum16ResolverRunnableD1Ev
libpapyro.so:_ZN9Athenaeum16ResolverRunnableD2Ev
libpapyro.so:_ZN9Athenaeum17CollectionPrivate11qt_metacallEN11QMetaObject4CallEiPPv
libpapyro.so:_ZN9Athenaeum17CollectionPrivate11qt_metacastEPKc
libpapyro.so:_ZN9Athenaeum17CollectionPrivate20rowsAboutToBeRemovedERK11QModelIndexii
libpapyro.so:_ZN9Athenaeum17CollectionPrivateC1EPNS_10CollectionEPNS_20AbstractBibliographyE
libpapyro.so:_ZN9Athenaeum17CollectionPrivateC2EPNS_10CollectionEPNS_20AbstractBibliographyE
libpapyro.so:_ZN9Athenaeum17LibraryStatusIcon11qt_metacallEN11QMetaObject4CallEiPPv
libpapyro.so:_ZN9Athenaeum17LibraryStatusIcon11qt_metacastEPKc
libpapyro.so:_ZN9Athenaeum17LibraryStatusIcon11textChangedERK7QString
libpapyro.so:_ZN9Athenaeum17LibraryStatusIcon7setTextERK7QString
libpapyro.so:_ZN9Athenaeum17LibraryStatusIconC1EP18QAbstractItemModelRK11QModelIndexi
libpapyro.so:_ZN9Athenaeum17LibraryStatusIconC2EP18QAbstractItemModelRK11QModelIndexi
libpapyro.so:_ZN9Athenaeum17LibraryStatusIconD0Ev
libpapyro.so:_ZN9Athenaeum17LibraryStatusIconD1Ev
libpapyro.so:_ZN9Athenaeum17LibraryStatusIconD2Ev
libpapyro.so:_ZN9Athenaeum18ArticleViewPrivate11eventFilterEP7QObjectP6QEvent
libpapyro.so:_ZN9Athenaeum18ArticleViewPrivate11qt_metacallEN11QMetaObject4CallEiPPv
libpapyro.so:_ZN9Athenaeum18ArticleViewPrivate11qt_metacastEPKc
libpapyro.so:_ZN9Athenaeum18ArticleViewPrivate15cancelRunnablesEv
libpapyro.so:_ZN9Athenaeum18ArticleViewPrivate16articleActivatedERK11QModelIndexb
libpapyro.so:_ZN9Athenaeum18ArticleViewPrivate17articlesActivatedERK5QListI11QModelIndexEb
libpapyro.so:_ZN9Athenaeum18ArticleViewPrivate18onArticleActivatedERK11QModelIndex
libpapyro.so:_ZN9Athenaeum18ArticleViewPrivate20openSelectedArticlesEv
libpapyro.so:_ZN9Athenaeum18ArticleViewPrivate21cancellationRequestedEv
libpapyro.so:_ZN9Athenaeum18ArticleViewPrivate25exportArticlesAsCitationsERK14QItemSelection
libpapyro.so:_ZN9Athenaeum18ArticleViewPrivate27onResolverRunnableCompletedE4QMapI7QString8QVariantE
libpapyro.so:_ZN9Athenaeum18ArticleViewPrivate28exportAllArticlesAsCitationsEv
libpapyro.so:_ZN9Athenaeum18ArticleViewPrivate29saveSelectedArticlesToLibraryEv
libpapyro.so:_ZN9Athenaeum18ArticleViewPrivate31openSelectedArticlesInNewWindowEv
libpapyro.so:_ZN9Athenaeum18ArticleViewPrivate33exportSelectedArticlesAsCitationsEv
libpapyro.so:_ZN9Athenaeum18ArticleViewPrivate33removeSelectedArticlesFromLibraryEv
libpapyro.so:_ZN9Athenaeum18ArticleViewPrivateC1EPNS_11ArticleViewE
libpapyro.so:_ZN9Athenaeum18ArticleViewPrivateC2EPNS_11ArticleViewE
libpapyro.so:_ZN9Athenaeum18ArticleViewPrivateD0Ev
libpapyro.so:_ZN9Athenaeum18ArticleViewPrivateD1Ev
libpapyro.so:_ZN9Athenaeum18ArticleViewPrivateD2Ev
libpapyro.so:_ZN9Athenaeum18LibraryViewPrivate11eventFilterEP7QObjectP6QEvent
libpapyro.so:_ZN9Athenaeum18LibraryViewPrivate11qt_metacallEN11QMetaObject4CallEiPPv
libpapyro.so:_ZN9Athenaeum18LibraryViewPrivate11qt_metacastEPKc
libpapyro.so:_ZN9Athenaeum18LibraryViewPrivate14setIndexWidgetERK11QModelIndexi
libpapyro.so:_ZN9Athenaeum18LibraryViewPrivateC1EPNS_11LibraryViewE
libpapyro.so:_ZN9Athenaeum18LibraryViewPrivateC2EPNS_11LibraryViewE
libpapyro.so:_ZN9Athenaeum18RemoteQueryPrivateC1Ev
libpapyro.so:_ZN9Athenaeum18RemoteQueryPrivateC2Ev
libpapyro.so:_ZN9Athenaeum19BibliographyPrivate10addItemIdsERKN5boost10shared_ptrINS_8CitationEEE
libpapyro.so:_ZN9Athenaeum19BibliographyPrivate11dataChangedERK11QModelIndexS3_RK7QVectorIiE
libpapyro.so:_ZN9Athenaeum19BibliographyPrivate11qt_metacallEN11QMetaObject4CallEiPPv
libpapyro.so:_ZN9Athenaeum19BibliographyPrivate11qt_metacastEPKc
libpapyro.so:_ZN9Athenaeum19BibliographyPrivate13removeItemIdsERKN5boost10shared_ptrINS_8CitationEEE
libpapyro.so:_ZN9Athenaeum19BibliographyPrivate17onCitationChangedEi8QVariant
libpapyro.so:_ZN9Athenaeum19BibliographyPrivateC1EPNS_12BibliographyE
libpapyro.so:_ZN9Athenaeum19BibliographyPrivateC2EPNS_12BibliographyE
libpapyro.so:_ZN9Athenaeum19LibraryModelPrivate11dataChangedERK11QModelIndexS3_
libpapyro.so:_ZN9Athenaeum19LibraryModelPrivate11qt_metacallEN11QMetaObject4CallEiPPv
libpapyro.so:_ZN9Athenaeum19LibraryModelPrivate11qt_metacastEPKc
libpapyro.so:_ZN9Athenaeum19LibraryModelPrivate12connectModelEP18QAbstractItemModel
libpapyro.so:_ZN9Athenaeum19LibraryModelPrivate13onDataChangedERK11QModelIndexS3_RK7QVectorIiE
libpapyro.so:_ZN9Athenaeum19LibraryModelPrivate13onRowsRemovedERK11QModelIndexii
libpapyro.so:_ZN9Athenaeum19LibraryModelPrivate14onRowsInsertedERK11QModelIndexii
libpapyro.so:_ZN9Athenaeum19LibraryModelPrivate14onStateChangedENS_20AbstractBibliography5StateE
libpapyro.so:_ZN9Athenaeum19LibraryModelPrivate14onTitleChangedERK7QString
libpapyro.so:_ZN9Athenaeum19LibraryModelPrivate15disconnectModelEP18QAbstractItemModel
libpapyro.so:_ZN9Athenaeum19LibraryModelPrivate15updateMimeTypesEv
libpapyro.so:_ZN9Athenaeum19LibraryModelPrivate16relayDataChangedEv
libpapyro.so:_ZN9Athenaeum19LibraryModelPrivate22onRowsAboutToBeRemovedERK11QModelIndexii
libpapyro.so:_ZN9Athenaeum19LibraryModelPrivate4saveEv
libpapyro.so:_ZN9Athenaeum19LibraryModelPrivateC1EPNS_12LibraryModelE
libpapyro.so:_ZN9Athenaeum19LibraryModelPrivateC2EPNS_12LibraryModelE
libpapyro.so:_ZN9Athenaeum19LibraryModelPrivateD0Ev
libpapyro.so:_ZN9Athenaeum19LibraryModelPrivateD1Ev
libpapyro.so:_ZN9Athenaeum19LibraryModelPrivateD2Ev
libpapyro.so:_ZN9Athenaeum20RemoteQueryResultSetC1Ev
libpapyro.so:_ZN9Athenaeum20RemoteQueryResultSetC2Ev
libpapyro.so:_ZN9Athenaeum20ResolverQueuePrivate11qt_metacallEN11QMetaObject4CallEiPPv
libpapyro.so:_ZN9Athenaeum20ResolverQueuePrivate11qt_metacastEPKc
libpapyro.so:_ZN9Athenaeum20ResolverQueuePrivate13onDataChangedERK11QModelIndexS3_
libpapyro.so:_ZN9Athenaeum20ResolverQueuePrivate14onRowsInsertedERK11QModelIndexii
libpapyro.so:_ZN9Athenaeum20ResolverQueuePrivate22onRowsAboutToBeRemovedERK11QModelIndexii
libpapyro.so:_ZN9Athenaeum20ResolverQueuePrivate4nextEv
libpapyro.so:_ZN9Athenaeum20ResolverQueuePrivate5queueEN5boost10shared_ptrINS_8CitationEEEi
libpapyro.so:_ZN9Athenaeum20ResolverQueuePrivate6cancelEv
libpapyro.so:_ZN9Athenaeum20ResolverQueuePrivate7unqueueEN5boost10shared_ptrINS_8CitationEEE
libpapyro.so:_ZN9Athenaeum20ResolverQueuePrivate9cancelledEv
libpapyro.so:_ZN9Athenaeum20ResolverQueuePrivateC1EPNS_12BibliographyEP7QObject
libpapyro.so:_ZN9Athenaeum20ResolverQueuePrivateC2EPNS_12BibliographyEP7QObject
libpapyro.so:_ZN9Athenaeum20ResolverQueuePrivateD0Ev
libpapyro.so:_ZN9Athenaeum20ResolverQueuePrivateD1Ev
libpapyro.so:_ZN9Athenaeum20ResolverQueuePrivateD2Ev
libpapyro.so:_ZN9Athenaeum20SortFilterProxyModel11qt_metacallEN11QMetaObject4CallEiPPv
libpapyro.so:_ZN9Athenaeum20SortFilterProxyModel11qt_metacastEPKc
libpapyro.so:_ZN9Athenaeum20SortFilterProxyModel9setFilterEPNS_14AbstractFilterE
libpapyro.so:_ZN9Athenaeum20SortFilterProxyModelC1EP7QObject
libpapyro.so:_ZN9Athenaeum20SortFilterProxyModelC2EP7QObject
libpapyro.so:_ZN9Athenaeum20SortFilterProxyModelD0Ev
libpapyro.so:_ZN9Athenaeum20SortFilterProxyModelD1Ev
libpapyro.so:_ZN9Athenaeum20SortFilterProxyModelD2Ev
libpapyro.so:_ZN9Athenaeum21AggregatingProxyModel10insertRowsEiiRK11QModelIndex
libpapyro.so:_ZN9Athenaeum21AggregatingProxyModel10removeRowsEiiRK11QModelIndex
libpapyro.so:_ZN9Athenaeum21AggregatingProxyModel11qt_metacallEN11QMetaObject4CallEiPPv
libpapyro.so:_ZN9Athenaeum21AggregatingProxyModel11qt_metacastEPKc
libpapyro.so:_ZN9Athenaeum21AggregatingProxyModel17appendSourceModelEP18QAbstractItemModel
libpapyro.so:_ZN9Athenaeum21AggregatingProxyModel17removeSourceModelEP18QAbstractItemModel
libpapyro.so:_ZN9Athenaeum21AggregatingProxyModel5clearEv
libpapyro.so:_ZN9Athenaeum21AggregatingProxyModel7setDataERK11QModelIndexRK8QVarianti
libpapyro.so:_ZN9Athenaeum21AggregatingProxyModelC1EN2Qt11OrientationEP7QObject
libpapyro.so:_ZN9Athenaeum21AggregatingProxyModelC2EN2Qt11OrientationEP7QObject
libpapyro.so:_ZN9Athenaeum21AggregatingProxyModelD0Ev
libpapyro.so:_ZN9Athenaeum21AggregatingProxyModelD1Ev
libpapyro.so:_ZN9Athenaeum21AggregatingProxyModelD2Ev
libpapyro.so:_ZN9Athenaeum21BibliographicMimeData10setIndexesERK5QListI11QModelIndexE
libpapyro.so:_ZN9Athenaeum21BibliographicMimeData11qt_metacallEN11QMetaObject4CallEiPPv
libpapyro.so:_ZN9Athenaeum21BibliographicMimeData11qt_metacastEPKc
libpapyro.so:_ZN9Athenaeum21BibliographicMimeDataC1ERK5QListI11QModelIndexE
libpapyro.so:_ZN9Athenaeum21BibliographicMimeDataC2ERK5QListI11QModelIndexE
libpapyro.so:_ZN9Athenaeum21BibliographicMimeDataD0Ev
libpapyro.so:_ZN9Athenaeum21BibliographicMimeDataD1Ev
libpapyro.so:_ZN9Athenaeum21BibliographicMimeDataD2Ev
libpapyro.so:_ZN9Athenaeum21LocalPersistenceModel11qt_metacallEN11QMetaObject4CallEiPPv
libpapyro.so:_ZN9Athenaeum21LocalPersistenceModel11qt_metacastEPKc
libpapyro.so:_ZN9Athenaeum21LocalPersistenceModelC1ERK4QDirP7QObject
libpapyro.so:_ZN9Athenaeum21LocalPersistenceModelC2ERK4QDirP7QObject
libpapyro.so:_ZN9Athenaeum21LocalPersistenceModelD0Ev
libpapyro.so:_ZN9Athenaeum21LocalPersistenceModelD1Ev
libpapyro.so:_ZN9Athenaeum21LocalPersistenceModelD2Ev
libpapyro.so:_ZN9Athenaeum21ResolverQueueRunnable11isCancelledEv
libpapyro.so:_ZN9Athenaeum21ResolverQueueRunnable11qt_metacallEN11QMetaObject4CallEiPPv
libpapyro.so:_ZN9Athenaeum21ResolverQueueRunnable11qt_metacastEPKc
libpapyro.so:_ZN9Athenaeum21ResolverQueueRunnable3runEv
libpapyro.so:_ZN9Athenaeum21ResolverQueueRunnable6cancelEv
libpapyro.so:_ZN9Athenaeum21ResolverQueueRunnableC1EPNS_20ResolverQueuePrivateE
libpapyro.so:_ZN9Athenaeum21ResolverQueueRunnableC2EPNS_20ResolverQueuePrivateE
libpapyro.so:_ZN9Athenaeum22BibliographicSearchBox11qt_metacallEN11QMetaObject4CallEiPPv
libpapyro.so:_ZN9Athenaeum22BibliographicSearchBox11qt_metacastEPKc
libpapyro.so:_ZN9Athenaeum22BibliographicSearchBox11resizeEventEP12QResizeEvent
libpapyro.so:_ZN9Athenaeum22BibliographicSearchBox14setSearchDelayEi
libpapyro.so:_ZN9Athenaeum22BibliographicSearchBox15cancelRequestedEv
libpapyro.so:_ZN9Athenaeum22BibliographicSearchBox15filterRequestedERK7QStringNS0_12SearchDomainE
libpapyro.so:_ZN9Athenaeum22BibliographicSearchBox15searchRequestedERK7QStringNS0_12SearchDomainE
libpapyro.so:_ZN9Athenaeum22BibliographicSearchBox15setSearchDomainENS0_12SearchDomainE
libpapyro.so:_ZN9Athenaeum22BibliographicSearchBox19searchDomainChangedENS0_12SearchDomainE
libpapyro.so:_ZN9Athenaeum22BibliographicSearchBox5clearEv
libpapyro.so:_ZN9Athenaeum22BibliographicSearchBox6filterERK7QString
libpapyro.so:_ZN9Athenaeum22BibliographicSearchBox6searchERK7QString
libpapyro.so:_ZN9Athenaeum22BibliographicSearchBoxC1EP7QWidget
libpapyro.so:_ZN9Athenaeum22BibliographicSearchBoxC2EP7QWidget
libpapyro.so:_ZN9Athenaeum22BibliographicSearchBoxD0Ev
libpapyro.so:_ZN9Athenaeum22BibliographicSearchBoxD1Ev
libpapyro.so:_ZN9Athenaeum22BibliographicSearchBoxD2Ev
libpapyro.so:_ZN9Athenaeum23RemoteQueryBibliography11qt_metacallEN11QMetaObject4CallEiPPv
libpapyro.so:_ZN9Athenaeum23RemoteQueryBibliography11qt_metacastEPKc
libpapyro.so:_ZN9Athenaeum23RemoteQueryBibliography8setQueryERK4QMapI7QString8QVariantE
libpapyro.so:_ZN9Athenaeum23RemoteQueryBibliography8setQueryERK7QString
libpapyro.so:_ZN9Athenaeum23RemoteQueryBibliography9fetchMoreERK11QModelIndex
libpapyro.so:_ZN9Athenaeum23RemoteQueryBibliographyC1ERK7QStringP7QObject
libpapyro.so:_ZN9Athenaeum23RemoteQueryBibliographyC2ERK7QStringP7QObject
libpapyro.so:_ZN9Athenaeum23RemoteQueryBibliographyD0Ev
libpapyro.so:_ZN9Athenaeum23RemoteQueryBibliographyD1Ev
libpapyro.so:_ZN9Athenaeum23RemoteQueryBibliographyD2Ev
libpapyro.so:_ZN9Athenaeum23ResolverRunnablePrivateC1Ev
libpapyro.so:_ZN9Athenaeum23ResolverRunnablePrivateC2Ev
libpapyro.so:_ZN9Athenaeum24LibraryStatusIconPrivate11eventFilterEP7QObjectP6QEvent
libpapyro.so:_ZN9Athenaeum24LibraryStatusIconPrivate11qt_metacallEN11QMetaObject4CallEiPPv
libpapyro.so:_ZN9Athenaeum24LibraryStatusIconPrivate11qt_metacastEPKc
libpapyro.so:_ZN9Athenaeum24LibraryStatusIconPrivate14onStateChangedENS_20AbstractBibliography5StateE
libpapyro.so:_ZN9Athenaeum24LibraryStatusIconPrivateC1EPNS_17LibraryStatusIconE
libpapyro.so:_ZN9Athenaeum24LibraryStatusIconPrivateC2EPNS_17LibraryStatusIconE
libpapyro.so:_ZN9Athenaeum24LibraryStatusIconPrivateD0Ev
libpapyro.so:_ZN9Athenaeum24LibraryStatusIconPrivateD1Ev
libpapyro.so:_ZN9Athenaeum24LibraryStatusIconPrivateD2Ev
libpapyro.so:_ZN9Athenaeum26CollectionPersistenceModel11qt_metacallEN11QMetaObject4CallEiPPv
libpapyro.so:_ZN9Athenaeum26CollectionPersistenceModel11qt_metacastEPKc
libpapyro.so:_ZN9Athenaeum26CollectionPersistenceModelC1ERK4QDirP7QObject
libpapyro.so:_ZN9Athenaeum26CollectionPersistenceModelC2ERK4QDirP7QObject
libpapyro.so:_ZN9Athenaeum26CollectionPersistenceModelD0Ev
libpapyro.so:_ZN9Athenaeum26CollectionPersistenceModelD1Ev
libpapyro.so:_ZN9Athenaeum26CollectionPersistenceModelD2Ev
libpapyro.so:_ZN9Athenaeum28AggregatingProxyModelPrivate10modelResetEv
libpapyro.so:_ZN9Athenaeum28AggregatingProxyModelPrivate11dataChangedERK11QModelIndexS3_RK7QVectorIiE
libpapyro.so:_ZN9Athenaeum28AggregatingProxyModelPrivate11qt_metacallEN11QMetaObject4CallEiPPv
libpapyro.so:_ZN9Athenaeum28AggregatingProxyModelPrivate11qt_metacastEPKc
libpapyro.so:_ZN9Athenaeum28AggregatingProxyModelPrivate11rowsRemovedERK11QModelIndexii
libpapyro.so:_ZN9Athenaeum28AggregatingProxyModelPrivate12columnsMovedERK11QModelIndexiiS3_i
libpapyro.so:_ZN9Athenaeum28AggregatingProxyModelPrivate12on_rowsMovedERK11QModelIndexiiS3_i
libpapyro.so:_ZN9Athenaeum28AggregatingProxyModelPrivate12rowsInsertedERK11QModelIndexii
libpapyro.so:_ZN9Athenaeum28AggregatingProxyModelPrivate13layoutChangedEv
libpapyro.so:_ZN9Athenaeum28AggregatingProxyModelPrivate13on_modelResetEv
libpapyro.so:_ZN9Athenaeum28AggregatingProxyModelPrivate14columnsRemovedERK11QModelIndexii
libpapyro.so:_ZN9Athenaeum28AggregatingProxyModelPrivate14on_dataChangedERK11QModelIndexS3_RK7QVectorIiE
libpapyro.so:_ZN9Athenaeum28AggregatingProxyModelPrivate14on_rowsRemovedERK11QModelIndexii
libpapyro.so:_ZN9Athenaeum28AggregatingProxyModelPrivate15columnsInsertedERK11QModelIndexii
libpapyro.so:_ZN9Athenaeum28AggregatingProxyModelPrivate15on_columnsMovedERK11QModelIndexiiS3_i
libpapyro.so:_ZN9Athenaeum28AggregatingProxyModelPrivate15on_rowsInsertedERK11QModelIndexii
libpapyro.so:_ZN9Athenaeum28AggregatingProxyModelPrivate16on_layoutChangedEv
libpapyro.so:_ZN9Athenaeum28AggregatingProxyModelPrivate17appendSourceModelEP18QAbstractItemModel
libpapyro.so:_ZN9Athenaeum28AggregatingProxyModelPrivate17calculateIndexMapEv
libpapyro.so:_ZN9Athenaeum28AggregatingProxyModelPrivate17headerDataChangedEN2Qt11OrientationEii
libpapyro.so:_ZN9Athenaeum28AggregatingProxyModelPrivate17on_columnsRemovedERK11QModelIndexii
libpapyro.so:_ZN9Athenaeum28AggregatingProxyModelPrivate17removeSourceModelEP18QAbstractItemModel
libpapyro.so:_ZN9Athenaeum28AggregatingProxyModelPrivate18on_columnsInsertedERK11QModelIndexii
libpapyro.so:_ZN9Athenaeum28AggregatingProxyModelPrivate18rowsAboutToBeMovedERK11QModelIndexiiS3_i
libpapyro.so:_ZN9Athenaeum28AggregatingProxyModelPrivate19modelAboutToBeResetEv
libpapyro.so:_ZN9Athenaeum28AggregatingProxyModelPrivate20on_headerDataChangedEN2Qt11OrientationEii
libpapyro.so:_ZN9Athenaeum28AggregatingProxyModelPrivate20rowsAboutToBeRemovedERK11QModelIndexii
libpapyro.so:_ZN9Athenaeum28AggregatingProxyModelPrivate21calculateMaximumWidthEv
libpapyro.so:_ZN9Athenaeum28AggregatingProxyModelPrivate21columnsAboutToBeMovedERK11QModelIndexiiS3_i
libpapyro.so:_ZN9Athenaeum28AggregatingProxyModelPrivate21on_rowsAboutToBeMovedERK11QModelIndexiiS3_i
libpapyro.so:_ZN9Athenaeum28AggregatingProxyModelPrivate21rowsAboutToBeInsertedERK11QModelIndexii
libpapyro.so:_ZN9Athenaeum28AggregatingProxyModelPrivate22layoutAboutToBeChangedEv
libpapyro.so:_ZN9Athenaeum28AggregatingProxyModelPrivate22on_modelAboutToBeResetEv
libpapyro.so:_ZN9Athenaeum28AggregatingProxyModelPrivate23columnsAboutToBeRemovedERK11QModelIndexii
libpapyro.so:_ZN9Athenaeum28AggregatingProxyModelPrivate23on_rowsAboutToBeRemovedERK11QModelIndexii
libpapyro.so:_ZN9Athenaeum28AggregatingProxyModelPrivate24columnsAboutToBeInsertedERK11QModelIndexii
libpapyro.so:_ZN9Athenaeum28AggregatingProxyModelPrivate24on_columnsAboutToBeMovedERK11QModelIndexiiS3_i
libpapyro.so:_ZN9Athenaeum28AggregatingProxyModelPrivate24on_rowsAboutToBeInsertedERK11QModelIndexii
libpapyro.so:_ZN9Athenaeum28AggregatingProxyModelPrivate25on_layoutAboutToBeChangedEv
libpapyro.so:_ZN9Athenaeum28AggregatingProxyModelPrivate26on_columnsAboutToBeRemovedERK11QModelIndexii
libpapyro.so:_ZN9Athenaeum28AggregatingProxyModelPrivate27on_columnsAboutToBeInsertedERK11QModelIndexii
libpapyro.so:_ZN9Athenaeum28AggregatingProxyModelPrivate5widthEP18QAbstractItemModel
libpapyro.so:_ZN9Athenaeum28AggregatingProxyModelPrivate6lengthEP18QAbstractItemModel
libpapyro.so:_ZN9Athenaeum28AggregatingProxyModelPrivate9rowsMovedERK11QModelIndexiiS3_i
libpapyro.so:_ZN9Athenaeum28AggregatingProxyModelPrivateC1EPNS_21AggregatingProxyModelEN2Qt11OrientationE
libpapyro.so:_ZN9Athenaeum28AggregatingProxyModelPrivateC2EPNS_21AggregatingProxyModelEN2Qt11OrientationE
libpapyro.so:_ZN9Athenaeum29BibliographicSearchBoxPrivate11eventFilterEP7QObjectP6QEvent
libpapyro.so:_ZN9Athenaeum29BibliographicSearchBoxPrivate11qt_metacallEN11QMetaObject4CallEiPPv
libpapyro.so:_ZN9Athenaeum29BibliographicSearchBoxPrivate11qt_metacastEPKc
libpapyro.so:_ZN9Athenaeum29BibliographicSearchBoxPrivate13onTextChangedERK7QString
libpapyro.so:_ZN9Athenaeum29BibliographicSearchBoxPrivate15cancelRequestedEv
libpapyro.so:_ZN9Athenaeum29BibliographicSearchBoxPrivate15filterRequestedERK7QStringNS_22BibliographicSearchBox12SearchDomainE
libpapyro.so:_ZN9Athenaeum29BibliographicSearchBoxPrivate15onCancelPressedEv
libpapyro.so:_ZN9Athenaeum29BibliographicSearchBoxPrivate15onReturnPressedEv
libpapyro.so:_ZN9Athenaeum29BibliographicSearchBoxPrivate15searchRequestedERK7QStringNS_22BibliographicSearchBox12SearchDomainE
libpapyro.so:_ZN9Athenaeum29BibliographicSearchBoxPrivate18toggleCancelButtonEv
libpapyro.so:_ZN9Athenaeum29BibliographicSearchBoxPrivate19searchDomainChangedENS_22BibliographicSearchBox12SearchDomainE
libpapyro.so:_ZN9Athenaeum29BibliographicSearchBoxPrivate21onSearchDomainChangedEP7QAction
libpapyro.so:_ZN9Athenaeum29BibliographicSearchBoxPrivate9onTimeoutEv
libpapyro.so:_ZN9Athenaeum29BibliographicSearchBoxPrivateC1EP7QObject
libpapyro.so:_ZN9Athenaeum29BibliographicSearchBoxPrivateC2EP7QObject
libpapyro.so:_ZN9Athenaeum29BibliographicSearchBoxPrivateD0Ev
libpapyro.so:_ZN9Athenaeum29BibliographicSearchBoxPrivateD1Ev
libpapyro.so:_ZN9Athenaeum29BibliographicSearchBoxPrivateD2Ev
libpapyro.so:_ZN9Athenaeum30RemoteQueryBibliographyPrivate11qt_metacallEN11QMetaObject4CallEiPPv
libpapyro.so:_ZN9Athenaeum30RemoteQueryBibliographyPrivate11qt_metacastEPKc
libpapyro.so:_ZN9Athenaeum30RemoteQueryBibliographyPrivate11setExpectedEi
libpapyro.so:_ZN9Athenaeum30RemoteQueryBibliographyPrivate12stateChangedENS_20AbstractBibliography5StateE
libpapyro.so:_ZN9Athenaeum30RemoteQueryBibliographyPrivate7fetchedENS_20RemoteQueryResultSetE
libpapyro.so:_ZN9Athenaeum30RemoteQueryBibliographyPrivate8setLimitEi
libpapyro.so:_ZN9Athenaeum30RemoteQueryBibliographyPrivate9setOffsetEi
libpapyro.so:_ZN9Athenaeum30RemoteQueryBibliographyPrivateC1EPNS_23RemoteQueryBibliographyERK7QString
libpapyro.so:_ZN9Athenaeum30RemoteQueryBibliographyPrivateC2EPNS_23RemoteQueryBibliographyERK7QString
libpapyro.so:_ZN9Athenaeum30RemoteQueryBibliographyPrivateD0Ev
libpapyro.so:_ZN9Athenaeum30RemoteQueryBibliographyPrivateD1Ev
libpapyro.so:_ZN9Athenaeum30RemoteQueryBibliographyPrivateD2Ev
libpapyro.so:_ZN9Athenaeum8Citation11qt_metacallEN11QMetaObject4CallEiPPv
libpapyro.so:_ZN9Athenaeum8Citation11qt_metacastEPKc
libpapyro.so:_ZN9Athenaeum8Citation13updateFromMapERK4QMapI7QString8QVariantE
libpapyro.so:_ZN9Athenaeum8Citation7changedEi8QVariant
libpapyro.so:_ZN9Athenaeum8Citation7changedEv
libpapyro.so:_ZN9Athenaeum8Citation7fromMapERK4QMapI7QString8QVariantE
libpapyro.so:_ZN9Athenaeum8Citation8fromJsonEP5cJSON
libpapyro.so:_ZN9Athenaeum8Citation8setCleanEv
libpapyro.so:_ZN9Athenaeum8Citation8setDirtyEv
libpapyro.so:_ZN9Athenaeum8Citation8setFieldEiRK8QVariant
libpapyro.so:_ZN9Athenaeum8Citation9roleTitleENS0_4RoleE
libpapyro.so:_ZN9Athenaeum8CitationC1Eb
libpapyro.so:_ZN9Athenaeum8CitationC2Eb
libpapyro.so:_ZN9Athenaeum8Exporter8doExportERK5QListI11QModelIndexERK7QString
libpapyro.so:_ZN9Athenaeum8ORFilter11qt_metacallEN11QMetaObject4CallEiPPv
libpapyro.so:_ZN9Athenaeum8ORFilter11qt_metacastEPKc
libpapyro.so:_ZN9Athenaeum8ORFilter15setSubordinatesEPNS_14AbstractFilterES2_
libpapyro.so:_ZN9Athenaeum8ORFilter15setSubordinatesERK5QListIPNS_14AbstractFilterEE
libpapyro.so:_ZN9Athenaeum8ORFilterC1EPNS_14AbstractFilterES2_P7QObject
libpapyro.so:_ZN9Athenaeum8ORFilterC1ERK5QListIPNS_14AbstractFilterEEP7QObject
libpapyro.so:_ZN9Athenaeum8ORFilterC2EPNS_14AbstractFilterES2_P7QObject
libpapyro.so:_ZN9Athenaeum8ORFilterC2ERK5QListIPNS_14AbstractFilterEEP7QObject
libpapyro.so:_ZN9Athenaeum8ORFilterD0Ev
libpapyro.so:_ZN9Athenaeum8ORFilterD1Ev
libpapyro.so:_ZN9Athenaeum8ORFilterD2Ev
libpapyro.so:_ZN9Athenaeum9ANDFilter11qt_metacallEN11QMetaObject4CallEiPPv
libpapyro.so:_ZN9Athenaeum9ANDFilter11qt_metacastEPKc
libpapyro.so:_ZN9Athenaeum9ANDFilter15setSubordinatesEPNS_14AbstractFilterES2_
libpapyro.so:_ZN9Athenaeum9ANDFilter15setSubordinatesERK5QListIPNS_14AbstractFilterEE
libpapyro.so:_ZN9Athenaeum9ANDFilterC1EPNS_14AbstractFilterES2_P7QObject
libpapyro.so:_ZN9Athenaeum9ANDFilterC1ERK5QListIPNS_14AbstractFilterEEP7QObject
libpapyro.so:_ZN9Athenaeum9ANDFilterC2EPNS_14AbstractFilterES2_P7QObject
libpapyro.so:_ZN9Athenaeum9ANDFilterC2ERK5QListIPNS_14AbstractFilterEEP7QObject
libpapyro.so:_ZN9Athenaeum9ANDFilterD0Ev
libpapyro.so:_ZN9Athenaeum9ANDFilterD1Ev
libpapyro.so:_ZN9Athenaeum9ANDFilterD2Ev
libpapyro.so:_ZN9Athenaeum9NOTFilter11qt_metacallEN11QMetaObject4CallEiPPv
libpapyro.so:_ZN9Athenaeum9NOTFilter11qt_metacastEPKc
libpapyro.so:_ZN9Athenaeum9NOTFilter14setSubordinateEPNS_14AbstractFilterE
libpapyro.so:_ZN9Athenaeum9NOTFilterC1EPNS_14AbstractFilterEP7QObject
libpapyro.so:_ZN9Athenaeum9NOTFilterC2EPNS_14AbstractFilterEP7QObject
libpapyro.so:_ZN9Athenaeum9NOTFilterD0Ev
libpapyro.so:_ZN9Athenaeum9NOTFilterD1Ev
libpapyro.so:_ZN9Athenaeum9NOTFilterD2Ev
libpapyro.so:_ZNK6Papyro10Dispatcher10metaObjectEv
libpapyro.so:_ZNK6Papyro10Dispatcher16defaultSessionIdEv
libpapyro.so:_ZNK6Papyro10ResultItem10metaObjectEv
libpapyro.so:_ZNK6Papyro10ResultItem11defaultnessEv
libpapyro.so:_ZNK6Papyro10ResultItem12capabilitiesEv
libpapyro.so:_ZNK6Papyro10ResultItem5cssIdEv
libpapyro.so:_ZNK6Papyro10ResultItem5valueERK7QString
libpapyro.so:_ZNK6Papyro10ResultItem6weightEv
libpapyro.so:_ZNK6Papyro10ResultItem7contextEv
libpapyro.so:_ZNK6Papyro10ResultItem8headlessEv
libpapyro.so:_ZNK6Papyro10ResultItem9highlightEv
libpapyro.so:_ZNK6Papyro11CommentData2idEv
libpapyro.so:_ZNK6Papyro11CommentData4dateEv
libpapyro.so:_ZNK6Papyro11CommentData4textEv
libpapyro.so:_ZNK6Papyro11CommentData6anchorEv
libpapyro.so:_ZNK6Papyro11CommentData6authorEv
libpapyro.so:_ZNK6Papyro11CommentData6parentEv
libpapyro.so:_ZNK6Papyro11CommentData8isPublicEv
libpapyro.so:_ZNK6Papyro11ResultsView10metaObjectEv
libpapyro.so:_ZNK6Papyro11ResultsView9isRunningEv
libpapyro.so:_ZNK6Papyro12DocumentView10isExposingEv
libpapyro.so:_ZNK6Papyro12DocumentView10layoutMenuEv
libpapyro.so:_ZNK6Papyro12DocumentView10metaObjectEv
libpapyro.so:_ZNK6Papyro12DocumentView11bindingModeEv
libpapyro.so:_ZNK6Papyro12DocumentView13textSelectionEv
libpapyro.so:_ZNK6Papyro12DocumentView14autoScrollBarsEv
libpapyro.so:_ZNK6Papyro12DocumentView14highlightColorEv
libpapyro.so:_ZNK6Papyro12DocumentView14toolBarActionsEv
libpapyro.so:_ZNK6Papyro12DocumentView15interactionModeEv
libpapyro.so:_ZNK6Papyro12DocumentView17activeAnnotationsEv
libpapyro.so:_ZNK6Papyro12DocumentView17pageFlowDirectionEv
libpapyro.so:_ZNK6Papyro12DocumentView4zoomEv
libpapyro.so:_ZNK6Papyro12DocumentView7isEmptyEv
libpapyro.so:_ZNK6Papyro12DocumentView8documentEv
libpapyro.so:_ZNK6Papyro12DocumentView8pageFlowEv
libpapyro.so:_ZNK6Papyro12DocumentView8pageModeEv
libpapyro.so:_ZNK6Papyro12DocumentView8pageViewEi
libpapyro.so:_ZNK6Papyro12DocumentView8zoomMenuEv
libpapyro.so:_ZNK6Papyro12DocumentView8zoomModeEv
libpapyro.so:_ZNK6Papyro12DocumentView9saveStateEv
libpapyro.so:_ZNK6Papyro12EmbeddedPane10metaObjectEv
libpapyro.so:_ZNK6Papyro12EmbeddedPane16interactionFlagsEv
libpapyro.so:_ZNK6Papyro12EmbeddedPane4dataEv
libpapyro.so:_ZNK6Papyro12EmbeddedPane5errorEv
libpapyro.so:_ZNK6Papyro12EmbeddedPane6statusEv
libpapyro.so:_ZNK6Papyro12PagerPrivate10metaObjectEv
libpapyro.so:_ZNK6Papyro12PapyroWindow10currentTabEv
libpapyro.so:_ZNK6Papyro12PapyroWindow10metaObjectEv
libpapyro.so:_ZNK6Papyro12PapyroWindow4typeEv
libpapyro.so:_ZNK6Papyro12PapyroWindow7indexOfEPNS_9PapyroTabE
libpapyro.so:_ZNK6Papyro12PapyroWindow7indexOfERK4QUrl
libpapyro.so:_ZNK6Papyro12PhraseLookup7lookupsERKSt6vectorINSt7__cxx1112basic_stringIcSt11char_traitsIcESaIcEEESaIS7_EE
libpapyro.so:_ZNK6Papyro13CitationPanel10metaObjectEv
libpapyro.so:_ZNK6Papyro13CitationPopup10metaObjectEv
libpapyro.so:_ZNK6Papyro13DocumentProxy10metaObjectEv
libpapyro.so:_ZNK6Papyro13DocumentProxy8documentEv
libpapyro.so:_ZNK6Papyro13EmbeddedFrame10annotationEv
libpapyro.so:_ZNK6Papyro13EmbeddedFrame10metaObjectEv
libpapyro.so:_ZNK6Papyro13EmbeddedFrame11controlSizeEv
libpapyro.so:_ZNK6Papyro13EmbeddedFrame6boundsEv
libpapyro.so:_ZNK6Papyro13PrinterThread10metaObjectEv
libpapyro.so:_ZNK6Papyro13SliverPrivate10metaObjectEv
libpapyro.so:_ZNK6Papyro13TabBarPrivate10getTabRectEPKNS_7TabDataE
libpapyro.so:_ZNK6Papyro13TabBarPrivate10getTabRectEi
libpapyro.so:_ZNK6Papyro13TabBarPrivate10getTabSizeEi
libpapyro.so:_ZNK6Papyro13TabBarPrivate10metaObjectEv
libpapyro.so:_ZNK6Papyro13TabBarPrivate11getPositionEv
libpapyro.so:_ZNK6Papyro13TabBarPrivate12getTabOffsetEi
libpapyro.so:_ZNK6Papyro13TabBarPrivate15getCurrentIndexEv
libpapyro.so:_ZNK6Papyro13TabBarPrivate20getTabStarButtonRectEi
libpapyro.so:_ZNK6Papyro13TabBarPrivate21getTabCloseButtonRectEi
libpapyro.so:_ZNK6Papyro13TabBarPrivate5tabAtERK6QPoint
libpapyro.so:_ZNK6Papyro13TabBarPrivate7tabDataEi
libpapyro.so:_ZNK6Papyro13TabBarPrivate7tabLeftEv
libpapyro.so:_ZNK6Papyro13TabBarPrivate9tabDataAtERK6QPoint
libpapyro.so:_ZNK6Papyro14DispatchEngine10metaObjectEv
libpapyro.so:_ZNK6Papyro14DispatchEngine8detachedEv
libpapyro.so:_ZNK6Papyro14LookupRunnable10metaObjectEv
libpapyro.so:_ZNK6Papyro14PlayerControls10metaObjectEv
libpapyro.so:_ZNK6Papyro14PlayerControls7playPosEv
libpapyro.so:_ZNK6Papyro14PlayerControls9launchPosEv
libpapyro.so:_ZNK6Papyro14PrinterPrivate10metaObjectEv
libpapyro.so:_ZNK6Papyro14RaiseTabAction10metaObjectEv
libpapyro.so:_ZNK6Papyro14SidebarPrivate10metaObjectEv
libpapyro.so:_ZNK6Papyro14WidgetExpander10metaObjectEv
libpapyro.so:_ZNK6Papyro14WidgetExpander5childEv
libpapyro.so:_ZNK6Papyro14WidgetExpander6periodEv
libpapyro.so:_ZNK6Papyro14WidgetExpander8sizeHintEv
libpapyro.so:_ZNK6Papyro15DocumentManager10metaObjectEv
libpapyro.so:_ZNK6Papyro15PageViewPrivate10metaObjectEv
libpapyro.so:_ZNK6Papyro15PageViewPrivate8pageRectEv
libpapyro.so:_ZNK6Papyro15PageViewPrivate8pageSizeEv
libpapyro.so:_ZNK6Papyro15PageViewPrivate9mediaRectEv
libpapyro.so:_ZNK6Papyro15PageViewPrivate9mediaSizeEv
libpapyro.so:_ZNK6Papyro15ProgressLozenge10metaObjectEv
libpapyro.so:_ZNK6Papyro15ProgressLozenge5colorEv
libpapyro.so:_ZNK6Papyro15ProgressLozenge5labelEv
libpapyro.so:_ZNK6Papyro15ProgressLozenge6periodEv
libpapyro.so:_ZNK6Papyro15ProgressLozenge8sizeHintEv
libpapyro.so:_ZNK6Papyro16PapyroTabPrivate10metaObjectEv
libpapyro.so:_ZNK6Papyro16PapyroTabPrivate5busIdEv
libpapyro.so:_ZNK6Papyro16PapyroTabPrivate8documentEv
libpapyro.so:_ZNK6Papyro16SyncPointEmitter10metaObjectEv
libpapyro.so:_ZNK6Papyro17AnnotatorRunnable10isRunnableEv
libpapyro.so:_ZNK6Papyro17AnnotatorRunnable10metaObjectEv
libpapyro.so:_ZNK6Papyro17AnnotatorRunnable5titleEv
libpapyro.so:_ZNK6Papyro17AnnotatorRunnable9eventNameEv
libpapyro.so:_ZNK6Papyro17ResultItemControl10metaObjectEv
libpapyro.so:_ZNK6Papyro17ResultItemControl10sourceIconEv
libpapyro.so:_ZNK6Papyro17ResultItemControl11descriptionEv
libpapyro.so:_ZNK6Papyro17ResultItemControl13openByDefaultEv
libpapyro.so:_ZNK6Papyro17ResultItemControl14sourceDatabaseEv
libpapyro.so:_ZNK6Papyro17ResultItemControl16thumbnailElementERK7QString
libpapyro.so:_ZNK6Papyro17ResultItemControl4itemEv
libpapyro.so:_ZNK6Papyro17ResultItemControl5cssIdEv
libpapyro.so:_ZNK6Papyro17ResultItemControl5titleEv
libpapyro.so:_ZNK6Papyro17ResultItemControl5valueERK7QString
libpapyro.so:_ZNK6Papyro17ResultItemControl6valuesERK7QString
libpapyro.so:_ZNK6Papyro17ResultItemControl6weightEv
libpapyro.so:_ZNK6Papyro17ResultItemControl7contextEv
libpapyro.so:_ZNK6Papyro17ResultItemControl7elementEv
libpapyro.so:_ZNK6Papyro17ResultItemControl8headlessEv
libpapyro.so:_ZNK6Papyro17ResultItemControl9authorUriEv
libpapyro.so:_ZNK6Papyro17ResultItemControl9highlightEv
libpapyro.so:_ZNK6Papyro18PageViewMouseEvent9globalPosEv
libpapyro.so:_ZNK6Papyro18PageViewMouseEventcvbEv
libpapyro.so:_ZNK6Papyro18ResultsViewControl10metaObjectEv
libpapyro.so:_ZNK6Papyro18ResultsViewPrivate10metaObjectEv
libpapyro.so:_ZNK6Papyro18VisualiserRunnable10metaObjectEv
libpapyro.so:_ZNK6Papyro19AnnotationProcessor11canActivateEN5boost10shared_ptrIN5Spine8DocumentEEESt3setINS2_INS3_10AnnotationEEESt4lessIS8_ESaIS8_EE
libpapyro.so:_ZNK6Papyro19AnnotationProcessor4iconEN5boost10shared_ptrIN5Spine8DocumentEEESt3setINS2_INS3_10AnnotationEEESt4lessIS8_ESaIS8_EE
libpapyro.so:_ZNK6Papyro19AnnotationProcessor5titleEN5boost10shared_ptrIN5Spine8DocumentEEESt3setINS2_INS3_10AnnotationEEESt4lessIS8_ESaIS8_EE
libpapyro.so:_ZNK6Papyro19DocumentViewPrivate10metaObjectEv
libpapyro.so:_ZNK6Papyro19DocumentViewPrivate12textCursorAtEPNS_8PageViewERK7QPointFN5Spine15DocumentElementE
libpapyro.so:_ZNK6Papyro19DocumentViewPrivate14selectionColorEv
libpapyro.so:_ZNK6Papyro19DocumentViewPrivate16interactionStateEv
libpapyro.so:_ZNK6Papyro19DocumentViewPrivate23primaryInteractionStateEv
libpapyro.so:_ZNK6Papyro19EmbeddedPanePrivate10metaObjectEv
libpapyro.so:_ZNK6Papyro19PapyroWindowPrivate10currentTabEv
libpapyro.so:_ZNK6Papyro19PapyroWindowPrivate10metaObjectEv
libpapyro.so:_ZNK6Papyro19PapyroWindowPrivate13layerGeometryENS0_5LayerE
libpapyro.so:_ZNK6Papyro19PapyroWindowPrivate21layerGeometryForStateENS0_5LayerENS0_10LayerStateE
libpapyro.so:_ZNK6Papyro19PapyroWindowPrivate6windowEv
libpapyro.so:_ZNK6Papyro20AnnotationResultItem10annotationEv
libpapyro.so:_ZNK6Papyro20AnnotationResultItem10sourceIconEv
libpapyro.so:_ZNK6Papyro20AnnotationResultItem11contentKeysEv
libpapyro.so:_ZNK6Papyro20AnnotationResultItem11defaultnessEv
libpapyro.so:_ZNK6Papyro20AnnotationResultItem11descriptionEv
libpapyro.so:_ZNK6Papyro20AnnotationResultItem12capabilitiesEv
libpapyro.so:_ZNK6Papyro20AnnotationResultItem12contentStateEv
libpapyro.so:_ZNK6Papyro20AnnotationResultItem12semanticTypeEv
libpapyro.so:_ZNK6Papyro20AnnotationResultItem12sourcePluginEv
libpapyro.so:_ZNK6Papyro20AnnotationResultItem14sourceDatabaseEv
libpapyro.so:_ZNK6Papyro20AnnotationResultItem17sourceDescriptionEv
libpapyro.so:_ZNK6Papyro20AnnotationResultItem5cssIdEv
libpapyro.so:_ZNK6Papyro20AnnotationResultItem5titleEv
libpapyro.so:_ZNK6Papyro20AnnotationResultItem5valueERK7QString
libpapyro.so:_ZNK6Papyro20AnnotationResultItem6valuesERK7QString
libpapyro.so:_ZNK6Papyro20AnnotationResultItem6weightEv
libpapyro.so:_ZNK6Papyro20AnnotationResultItem7contentERK7QString
libpapyro.so:_ZNK6Papyro20AnnotationResultItem8headlessEv
libpapyro.so:_ZNK6Papyro20AnnotationResultItem9authorUriEv
libpapyro.so:_ZNK6Papyro20AnnotationResultItem9highlightEv
libpapyro.so:_ZNK6Papyro20CitationPopupPrivate10metaObjectEv
libpapyro.so:_ZNK6Papyro20DocumentProxyPrivate10metaObjectEv
libpapyro.so:_ZNK6Papyro20EmbeddedFrameOverlay10metaObjectEv
libpapyro.so:_ZNK6Papyro20PageViewRenderThread10metaObjectEv
libpapyro.so:_ZNK6Papyro21AnnotatorRunnablePool10metaObjectEv
libpapyro.so:_ZNK6Papyro21PapyroRecentUrlHelper10metaObjectEv
libpapyro.so:_ZNK6Papyro21RaiseTabActionPrivate10metaObjectEv
libpapyro.so:_ZNK6Papyro22CitationFinderRunnable10metaObjectEv
libpapyro.so:_ZNK6Papyro22DocumentManagerPrivate10metaObjectEv
libpapyro.so:_ZNK6Papyro24MetadataResolutionFuture10metaObjectEv
libpapyro.so:_ZNK6Papyro24MetadataResolutionFuture7isReadyEv
libpapyro.so:_ZNK6Papyro24MetadataResolutionFuture7resultsEv
libpapyro.so:_ZNK6Papyro24SelectionProcessorAction10metaObjectEv
libpapyro.so:_ZNK6Papyro25AnnotationProcessorAction10metaObjectEv
libpapyro.so:_ZNK6Papyro27AnnotationResultItemPrivate10isFinishedEv
libpapyro.so:_ZNK6Papyro27AnnotationResultItemPrivate10metaObjectEv
libpapyro.so:_ZNK6Papyro29PropertyOverlayRendererMapper2idEv
libpapyro.so:_ZNK6Papyro29PropertyOverlayRendererMapper7mapToIdEN5boost10shared_ptrIN5Spine8DocumentEEENS2_INS3_10AnnotationEEE
libpapyro.so:_ZNK6Papyro29PropertyOverlayRendererMapper8criteriaEv
libpapyro.so:_ZNK6Papyro5Pager10clampIndexEib
libpapyro.so:_ZNK6Papyro5Pager10drawLabelsEv
libpapyro.so:_ZNK6Papyro5Pager10metaObjectEv
libpapyro.so:_ZNK6Papyro5Pager10validIndexEib
libpapyro.so:_ZNK6Papyro5Pager11boundingBoxEv
libpapyro.so:_ZNK6Papyro5Pager11orientationEv
libpapyro.so:_ZNK6Papyro5Pager18clampedBoundingBoxEv
libpapyro.so:_ZNK6Papyro5Pager18getContentsMarginsEPiS1_S1_S1_
libpapyro.so:_ZNK6Papyro5Pager2atEi
libpapyro.so:_ZNK6Papyro5Pager5countEv
libpapyro.so:_ZNK6Papyro5Pager6spreadEv
libpapyro.so:_ZNK6Papyro5Pager7currentEv
libpapyro.so:_ZNK6Papyro5Pager7labelAtEi
libpapyro.so:_ZNK6Papyro6Sliver10metaObjectEv
libpapyro.so:_ZNK6Papyro6Sliver5titleEv
libpapyro.so:_ZNK6Papyro6Sliver9taskColorEv
libpapyro.so:_ZNK6Papyro6TabBar10metaObjectEv
libpapyro.so:_ZNK6Papyro6TabBar12currentIndexEv
libpapyro.so:_ZNK6Papyro6TabBar5countEv
libpapyro.so:_ZNK6Papyro6TabBar5tabAtEi
libpapyro.so:_ZNK6Papyro6TabBar7indexAtERK6QPoint
libpapyro.so:_ZNK6Papyro6TabBar7indexOfEPNS_9PapyroTabE
libpapyro.so:_ZNK6Papyro6TabBar7isEmptyEv
libpapyro.so:_ZNK6Papyro7Printer10metaObjectEv
libpapyro.so:_ZNK6Papyro7Sidebar10metaObjectEv
libpapyro.so:_ZNK6Papyro7Sidebar11resultsViewEv
libpapyro.so:_ZNK6Papyro7Sidebar16documentWideViewEv
libpapyro.so:_ZNK6Papyro7Sidebar7webViewEv
libpapyro.so:_ZNK6Papyro7Sidebar8sizeHintEv
libpapyro.so:_ZNK6Papyro8PageView10metaObjectEv
libpapyro.so:_ZNK6Papyro8PageView10pageNumberEv
libpapyro.so:_ZNK6Papyro8PageView10spotlightsEv
libpapyro.so:_ZNK6Papyro8PageView12textCursorAtERK7QPointFN5Spine15DocumentElementE
libpapyro.so:_ZNK6Papyro8PageView12verticalZoomEv
libpapyro.so:_ZNK6Papyro8PageView13imageCursorAtERK7QPointF
libpapyro.so:_ZNK6Papyro8PageView13userTransformEv
libpapyro.so:_ZNK6Papyro8PageView14horizontalZoomEv
libpapyro.so:_ZNK6Papyro8PageView15activeSpotlightEv
libpapyro.so:_ZNK6Papyro8PageView15transformToPageERK5QRect
libpapyro.so:_ZNK6Papyro8PageView15transformToPageERK5QSize
libpapyro.so:_ZNK6Papyro8PageView15transformToPageERK6QPoint
libpapyro.so:_ZNK6Papyro8PageView17transformFromPageERK6QRectF
libpapyro.so:_ZNK6Papyro8PageView17transformFromPageERK6QSizeF
libpapyro.so:_ZNK6Papyro8PageView17transformFromPageERK7QPointF
libpapyro.so:_ZNK6Papyro8PageView4pageEv
libpapyro.so:_ZNK6Papyro8PageView6isNullEv
libpapyro.so:_ZNK6Papyro8PageView8cursorAtERK7QPointFN5Spine15DocumentElementE
libpapyro.so:_ZNK6Papyro8PageView8documentEv
libpapyro.so:_ZNK6Papyro8PageView8pageRectEb
libpapyro.so:_ZNK6Papyro8PageView8pageSizeEb
libpapyro.so:_ZNK6Papyro8PageView9mediaRectEb
libpapyro.so:_ZNK6Papyro8PageView9mediaSizeEb
libpapyro.so:_ZNK6Papyro8PageView9newCursorEv
libpapyro.so:_ZNK6Papyro9CSLEngine10metaObjectEv
libpapyro.so:_ZNK6Papyro9CSLEngine12defaultStyleEv
libpapyro.so:_ZNK6Papyro9CSLEngine15availableStylesEv
libpapyro.so:_ZNK6Papyro9CSLEngine16availableLocalesEv
libpapyro.so:_ZNK6Papyro9PapyroTab10metaObjectEv
libpapyro.so:_ZNK6Papyro9PapyroTab12documentViewEv
libpapyro.so:_ZNK6Papyro9PapyroTab20networkAccessManagerEv
libpapyro.so:_ZNK6Papyro9PapyroTab30activeSelectionProcessorActionEv
libpapyro.so:_ZNK6Papyro9PapyroTab3busEv
libpapyro.so:_ZNK6Papyro9PapyroTab3urlEv
libpapyro.so:_ZNK6Papyro9PapyroTab5errorEv
libpapyro.so:_ZNK6Papyro9PapyroTab5stateEv
libpapyro.so:_ZNK6Papyro9PapyroTab5titleEv
libpapyro.so:_ZNK6Papyro9PapyroTab6actionENS0_10ActionTypeE
libpapyro.so:_ZNK6Papyro9PapyroTab7isEmptyEv
libpapyro.so:_ZNK6Papyro9PapyroTab7isKnownEv
libpapyro.so:_ZNK6Papyro9PapyroTab8citationEv
libpapyro.so:_ZNK6Papyro9PapyroTab8progressEv
libpapyro.so:_ZNK6Papyro9PapyroTab9isStarredEv
libpapyro.so:_ZNK6Papyro9SearchBar10metaObjectEv
libpapyro.so:_ZNK9Athenaeum10Collection10headerDataEiN2Qt11OrientationEi
libpapyro.so:_ZNK9Athenaeum10Collection10isReadOnlyEv
libpapyro.so:_ZNK9Athenaeum10Collection10itemForKeyERK7QString
libpapyro.so:_ZNK9Athenaeum10Collection10metaObjectEv
libpapyro.so:_ZNK9Athenaeum10Collection11columnCountERK11QModelIndex
libpapyro.so:_ZNK9Athenaeum10Collection16persistenceModelEv
libpapyro.so:_ZNK9Athenaeum10Collection18sourceBibliographyEv
libpapyro.so:_ZNK9Athenaeum10Collection4dataERK11QModelIndexi
libpapyro.so:_ZNK9Athenaeum10Collection5flagsERK11QModelIndex
libpapyro.so:_ZNK9Athenaeum10Collection5indexEiiRK11QModelIndex
libpapyro.so:_ZNK9Athenaeum10Collection5itemsEv
libpapyro.so:_ZNK9Athenaeum10Collection5stateEv
libpapyro.so:_ZNK9Athenaeum10Collection5titleEv
libpapyro.so:_ZNK9Athenaeum10Collection6itemAtEi
libpapyro.so:_ZNK9Athenaeum10Collection6parentERK11QModelIndex
libpapyro.so:_ZNK9Athenaeum10Collection8mimeDataERK5QListI11QModelIndexE
libpapyro.so:_ZNK9Athenaeum10Collection8progressEv
libpapyro.so:_ZNK9Athenaeum10Collection8rowCountERK11QModelIndex
libpapyro.so:_ZNK9Athenaeum10Collection9itemCountE6QFlagsINS_8Citation4FlagEE
libpapyro.so:_ZNK9Athenaeum10Collection9itemForIdERK7QString
libpapyro.so:_ZNK9Athenaeum10Collection9mimeTypesEv
libpapyro.so:_ZNK9Athenaeum10TextFilter10metaObjectEv
libpapyro.so:_ZNK9Athenaeum10TextFilter4roleEv
libpapyro.so:_ZNK9Athenaeum10TextFilter6columnEv
libpapyro.so:_ZNK9Athenaeum10TextFilter6regExpEv
libpapyro.so:_ZNK9Athenaeum10TextFilter7acceptsERK11QModelIndex
libpapyro.so:_ZNK9Athenaeum11ArticleView10metaObjectEv
libpapyro.so:_ZNK9Athenaeum11LibraryView10metaObjectEv
libpapyro.so:_ZNK9Athenaeum11LibraryView9dropColorEv
libpapyro.so:_ZNK9Athenaeum11RemoteQuery10metaObjectEv
libpapyro.so:_ZNK9Athenaeum11RemoteQuery18persistentPropertyERK7QString
libpapyro.so:_ZNK9Athenaeum11RemoteQuery23persistentPropertyNamesEv
libpapyro.so:_ZNK9Athenaeum12Bibliography10headerDataEiN2Qt11OrientationEi
libpapyro.so:_ZNK9Athenaeum12Bibliography10isReadOnlyEv
libpapyro.so:_ZNK9Athenaeum12Bibliography10itemForKeyERK7QString
libpapyro.so:_ZNK9Athenaeum12Bibliography10metaObjectEv
libpapyro.so:_ZNK9Athenaeum12Bibliography11columnCountERK11QModelIndex
libpapyro.so:_ZNK9Athenaeum12Bibliography16persistenceModelEv
libpapyro.so:_ZNK9Athenaeum12Bibliography4dataERK11QModelIndexi
libpapyro.so:_ZNK9Athenaeum12Bibliography5flagsERK11QModelIndex
libpapyro.so:_ZNK9Athenaeum12Bibliography5indexEiiRK11QModelIndex
libpapyro.so:_ZNK9Athenaeum12Bibliography5itemsEv
libpapyro.so:_ZNK9Athenaeum12Bibliography5stateEv
libpapyro.so:_ZNK9Athenaeum12Bibliography5titleEv
libpapyro.so:_ZNK9Athenaeum12Bibliography6itemAtEi
libpapyro.so:_ZNK9Athenaeum12Bibliography6parentERK11QModelIndex
libpapyro.so:_ZNK9Athenaeum12Bibliography8mimeDataERK5QListI11QModelIndexE
libpapyro.so:_ZNK9Athenaeum12Bibliography8progressEv
libpapyro.so:_ZNK9Athenaeum12Bibliography8rowCountERK11QModelIndex
libpapyro.so:_ZNK9Athenaeum12Bibliography9itemCountE6QFlagsINS_8Citation4FlagEE
libpapyro.so:_ZNK9Athenaeum12Bibliography9itemForIdERK7QString
libpapyro.so:_ZNK9Athenaeum12Bibliography9mimeTypesEv
libpapyro.so:_ZNK9Athenaeum12LibraryModel10everythingEv
libpapyro.so:_ZNK9Athenaeum12LibraryModel10headerDataEiN2Qt11OrientationEi
libpapyro.so:_ZNK9Athenaeum12LibraryModel10metaObjectEv
libpapyro.so:_ZNK9Athenaeum12LibraryModel10modelCountEv
libpapyro.so:_ZNK9Athenaeum12LibraryModel11columnCountERK11QModelIndex
libpapyro.so:_ZNK9Athenaeum12LibraryModel11masterIndexEv
libpapyro.so:_ZNK9Athenaeum12LibraryModel11recentIndexEv
libpapyro.so:_ZNK9Athenaeum12LibraryModel11searchCountEv
libpapyro.so:_ZNK9Athenaeum12LibraryModel11searchIndexEv
libpapyro.so:_ZNK9Athenaeum12LibraryModel12starredIndexEv
libpapyro.so:_ZNK9Athenaeum12LibraryModel13resolverQueueEv
libpapyro.so:_ZNK9Athenaeum12LibraryModel14saveObjectFileEN5boost10shared_ptrINS_8CitationEEERK10QByteArrayRK7QString
libpapyro.so:_ZNK9Athenaeum12LibraryModel16getObjectFileDirEv
libpapyro.so:_ZNK9Athenaeum12LibraryModel17getObjectFilePathEN5boost10shared_ptrINS_8CitationEEERK7QString
libpapyro.so:_ZNK9Athenaeum12LibraryModel17searchParentIndexEv
libpapyro.so:_ZNK9Athenaeum12LibraryModel21collectionParentIndexEv
libpapyro.so:_ZNK9Athenaeum12LibraryModel4dataERK11QModelIndexi
libpapyro.so:_ZNK9Athenaeum12LibraryModel5flagsERK11QModelIndex
libpapyro.so:_ZNK9Athenaeum12LibraryModel5indexEiiRK11QModelIndex
libpapyro.so:_ZNK9Athenaeum12LibraryModel6masterEv
libpapyro.so:_ZNK9Athenaeum12LibraryModel6modelsEv
libpapyro.so:_ZNK9Athenaeum12LibraryModel6parentERK11QModelIndex
libpapyro.so:_ZNK9Athenaeum12LibraryModel6recentEv
libpapyro.so:_ZNK9Athenaeum12LibraryModel7modelAtEi
libpapyro.so:_ZNK9Athenaeum12LibraryModel7starredEv
libpapyro.so:_ZNK9Athenaeum12LibraryModel8mimeDataERK5QListI11QModelIndexE
libpapyro.so:_ZNK9Athenaeum12LibraryModel8rowCountERK11QModelIndex
libpapyro.so:_ZNK9Athenaeum12LibraryModel8searchAtEi
libpapyro.so:_ZNK9Athenaeum12LibraryModel8searchesEv
libpapyro.so:_ZNK9Athenaeum12LibraryModel9mimeTypesEv
libpapyro.so:_ZNK9Athenaeum13ResolverQueue10metaObjectEv
libpapyro.so:_ZNK9Athenaeum13StarredFilter10metaObjectEv
libpapyro.so:_ZNK9Athenaeum13StarredFilter7acceptsERK11QModelIndex
libpapyro.so:_ZNK9Athenaeum14AbstractFilter10metaObjectEv
libpapyro.so:_ZNK9Athenaeum14DateTimeFilter10dateTimeToEv
libpapyro.so:_ZNK9Athenaeum14DateTimeFilter10metaObjectEv
libpapyro.so:_ZNK9Athenaeum14DateTimeFilter12dateTimeFromEv
libpapyro.so:_ZNK9Athenaeum14DateTimeFilter4roleEv
libpapyro.so:_ZNK9Athenaeum14DateTimeFilter6columnEv
libpapyro.so:_ZNK9Athenaeum14DateTimeFilter7acceptsERK11QModelIndex
libpapyro.so:_ZNK9Athenaeum15ArticleDelegate10metaObjectEv
libpapyro.so:_ZNK9Athenaeum15ArticleDelegate15mouseEnteredRowEv
libpapyro.so:_ZNK9Athenaeum15ArticleDelegate5paintEP8QPainterRK20QStyleOptionViewItemRK11QModelIndex
libpapyro.so:_ZNK9Athenaeum15ArticleDelegate8getRectsERK20QStyleOptionViewItemP5QRectS5_S5_
libpapyro.so:_ZNK9Athenaeum15ArticleDelegate8sizeHintERK20QStyleOptionViewItemRK11QModelIndex
libpapyro.so:_ZNK9Athenaeum15CitationPrivate10metaObjectEv
libpapyro.so:_ZNK9Athenaeum15LibraryDelegate10metaObjectEv
libpapyro.so:_ZNK9Athenaeum15LibraryDelegate12createEditorEP7QWidgetRK20QStyleOptionViewItemRK11QModelIndex
libpapyro.so:_ZNK9Athenaeum15LibraryDelegate5paintEP8QPainterRK20QStyleOptionViewItemRK11QModelIndex
libpapyro.so:_ZNK9Athenaeum15LibraryDelegate8sizeHintERK20QStyleOptionViewItemRK11QModelIndex
libpapyro.so:_ZNK9Athenaeum16PersistenceModel10isLoadableEv
libpapyro.so:_ZNK9Athenaeum16PersistenceModel10isSaveableEv
libpapyro.so:_ZNK9Athenaeum16PersistenceModel10metaObjectEv
libpapyro.so:_ZNK9Athenaeum16PersistenceModel11isPurgeableEv
libpapyro.so:_ZNK9Athenaeum16PersistenceModel4loadEP18QAbstractItemModel
libpapyro.so:_ZNK9Athenaeum16PersistenceModel4saveEP18QAbstractItemModel
libpapyro.so:_ZNK9Athenaeum16PersistenceModel5purgeEv
libpapyro.so:_ZNK9Athenaeum16ResolverRunnable10metaObjectEv
libpapyro.so:_ZNK9Athenaeum17CollectionPrivate10metaObjectEv
libpapyro.so:_ZNK9Athenaeum17LibraryStatusIcon10metaObjectEv
libpapyro.so:_ZNK9Athenaeum17LibraryStatusIcon4textEv
libpapyro.so:_ZNK9Athenaeum18ArticleViewPrivate10metaObjectEv
libpapyro.so:_ZNK9Athenaeum18ArticleViewPrivate15selectedIndexesEv
libpapyro.so:_ZNK9Athenaeum18LibraryViewPrivate10metaObjectEv
libpapyro.so:_ZNK9Athenaeum19BibliographyPrivate10metaObjectEv
libpapyro.so:_ZNK9Athenaeum19LibraryModelPrivate10metaObjectEv
libpapyro.so:_ZNK9Athenaeum19LibraryModelPrivate11masterIndexEv
libpapyro.so:_ZNK9Athenaeum19LibraryModelPrivate11recentIndexEv
libpapyro.so:_ZNK9Athenaeum19LibraryModelPrivate12starredIndexEv
libpapyro.so:_ZNK9Athenaeum19LibraryModelPrivate17searchParentIndexEv
libpapyro.so:_ZNK9Athenaeum19LibraryModelPrivate21collectionParentIndexEv
libpapyro.so:_ZNK9Athenaeum20ResolverQueuePrivate10metaObjectEv
libpapyro.so:_ZNK9Athenaeum20SortFilterProxyModel10metaObjectEv
libpapyro.so:_ZNK9Athenaeum20SortFilterProxyModel16filterAcceptsRowEiRK11QModelIndex
libpapyro.so:_ZNK9Athenaeum20SortFilterProxyModel19filterAcceptsColumnEiRK11QModelIndex
libpapyro.so:_ZNK9Athenaeum20SortFilterProxyModel6filterEv
libpapyro.so:_ZNK9Athenaeum21AggregatingProxyModel10headerDataEiN2Qt11OrientationEi
libpapyro.so:_ZNK9Athenaeum21AggregatingProxyModel10metaObjectEv
libpapyro.so:_ZNK9Athenaeum21AggregatingProxyModel11columnCountERK11QModelIndex
libpapyro.so:_ZNK9Athenaeum21AggregatingProxyModel11mapToSourceERK11QModelIndex
libpapyro.so:_ZNK9Athenaeum21AggregatingProxyModel13mapFromSourceERK11QModelIndex
libpapyro.so:_ZNK9Athenaeum21AggregatingProxyModel20mapSelectionToSourceERK14QItemSelection
libpapyro.so:_ZNK9Athenaeum21AggregatingProxyModel22mapSelectionFromSourceERK14QItemSelection
libpapyro.so:_ZNK9Athenaeum21AggregatingProxyModel4dataERK11QModelIndexi
libpapyro.so:_ZNK9Athenaeum21AggregatingProxyModel5flagsERK11QModelIndex
libpapyro.so:_ZNK9Athenaeum21AggregatingProxyModel5indexEiiRK11QModelIndex
libpapyro.so:_ZNK9Athenaeum21AggregatingProxyModel6parentERK11QModelIndex
libpapyro.so:_ZNK9Athenaeum21AggregatingProxyModel8mimeDataERK5QListI11QModelIndexE
libpapyro.so:_ZNK9Athenaeum21AggregatingProxyModel8rowCountERK11QModelIndex
libpapyro.so:_ZNK9Athenaeum21AggregatingProxyModel9mimeTypesEv
libpapyro.so:_ZNK9Athenaeum21BibliographicMimeData10metaObjectEv
libpapyro.so:_ZNK9Athenaeum21BibliographicMimeData7indexesEv
libpapyro.so:_ZNK9Athenaeum21LocalPersistenceModel10isLoadableEv
libpapyro.so:_ZNK9Athenaeum21LocalPersistenceModel10isSaveableEv
libpapyro.so:_ZNK9Athenaeum21LocalPersistenceModel10metaObjectEv
libpapyro.so:_ZNK9Athenaeum21LocalPersistenceModel11isPurgeableEv
libpapyro.so:_ZNK9Athenaeum21LocalPersistenceModel4loadEP18QAbstractItemModel
libpapyro.so:_ZNK9Athenaeum21LocalPersistenceModel4saveEP18QAbstractItemModel
libpapyro.so:_ZNK9Athenaeum21LocalPersistenceModel5purgeEv
libpapyro.so:_ZNK9Athenaeum21ResolverQueueRunnable10metaObjectEv
libpapyro.so:_ZNK9Athenaeum22BibliographicSearchBox10metaObjectEv
libpapyro.so:_ZNK9Athenaeum22BibliographicSearchBox11searchDelayEv
libpapyro.so:_ZNK9Athenaeum22BibliographicSearchBox12searchDomainEv
libpapyro.so:_ZNK9Athenaeum22BibliographicSearchBox4textEv
libpapyro.so:_ZNK9Athenaeum23RemoteQueryBibliography10isReadOnlyEv
libpapyro.so:_ZNK9Athenaeum23RemoteQueryBibliography10metaObjectEv
libpapyro.so:_ZNK9Athenaeum23RemoteQueryBibliography12canFetchMoreERK11QModelIndex
libpapyro.so:_ZNK9Athenaeum23RemoteQueryBibliography16persistenceModelEv
libpapyro.so:_ZNK9Athenaeum24LibraryStatusIconPrivate10metaObjectEv
libpapyro.so:_ZNK9Athenaeum26CollectionPersistenceModel10isLoadableEv
libpapyro.so:_ZNK9Athenaeum26CollectionPersistenceModel10isSaveableEv
libpapyro.so:_ZNK9Athenaeum26CollectionPersistenceModel10metaObjectEv
libpapyro.so:_ZNK9Athenaeum26CollectionPersistenceModel11isPurgeableEv
libpapyro.so:_ZNK9Athenaeum26CollectionPersistenceModel4loadEP18QAbstractItemModel
libpapyro.so:_ZNK9Athenaeum26CollectionPersistenceModel4saveEP18QAbstractItemModel
libpapyro.so:_ZNK9Athenaeum26CollectionPersistenceModel5purgeEv
libpapyro.so:_ZNK9Athenaeum28AggregatingProxyModelPrivate10metaObjectEv
libpapyro.so:_ZNK9Athenaeum28AggregatingProxyModelPrivate11mapToSourceERK11QModelIndex
libpapyro.so:_ZNK9Athenaeum28AggregatingProxyModelPrivate13mapFromSourceERK11QModelIndex
libpapyro.so:_ZNK9Athenaeum28AggregatingProxyModelPrivate14widthwiseIndexERK11QModelIndex
libpapyro.so:_ZNK9Athenaeum28AggregatingProxyModelPrivate15lengthwiseIndexERK11QModelIndex
libpapyro.so:_ZNK9Athenaeum28AggregatingProxyModelPrivate16mapFromSourceRowEP18QAbstractItemModeli
libpapyro.so:_ZNK9Athenaeum28AggregatingProxyModelPrivate19mapFromSourceColumnEP18QAbstractItemModeli
libpapyro.so:_ZNK9Athenaeum28AggregatingProxyModelPrivate20mapSelectionToSourceERK14QItemSelection
libpapyro.so:_ZNK9Athenaeum28AggregatingProxyModelPrivate22mapSelectionFromSourceERK14QItemSelection
libpapyro.so:_ZNK9Athenaeum29BibliographicSearchBoxPrivate10metaObjectEv
libpapyro.so:_ZNK9Athenaeum30RemoteQueryBibliographyPrivate10metaObjectEv
libpapyro.so:_ZNK9Athenaeum30RemoteQueryBibliographyPrivate5limitEv
libpapyro.so:_ZNK9Athenaeum30RemoteQueryBibliographyPrivate5queryEv
libpapyro.so:_ZNK9Athenaeum30RemoteQueryBibliographyPrivate6offsetEv
libpapyro.so:_ZNK9Athenaeum30RemoteQueryBibliographyPrivate8expectedEv
libpapyro.so:_ZNK9Athenaeum8Citation10metaObjectEv
libpapyro.so:_ZNK9Athenaeum8Citation5fieldEi
libpapyro.so:_ZNK9Athenaeum8Citation5toMapEv
libpapyro.so:_ZNK9Athenaeum8Citation6isBusyEv
libpapyro.so:_ZNK9Athenaeum8Citation6toJsonEv
libpapyro.so:_ZNK9Athenaeum8Citation7isDirtyEv
libpapyro.so:_ZNK9Athenaeum8Citation7isKnownEv
libpapyro.so:_ZNK9Athenaeum8Citation9isStarredEv
libpapyro.so:_ZNK9Athenaeum8CitationeqERKS0_
libpapyro.so:_ZNK9Athenaeum8CitationneERKS0_
libpapyro.so:_ZNK9Athenaeum8Exporter10extensionsEv
libpapyro.so:_ZNK9Athenaeum8Importer10extensionsEv
libpapyro.so:_ZNK9Athenaeum8Importer8supportsEP9QIODevice
libpapyro.so:_ZNK9Athenaeum8ORFilter10metaObjectEv
libpapyro.so:_ZNK9Athenaeum8ORFilter7acceptsERK11QModelIndex
libpapyro.so:_ZNK9Athenaeum9ANDFilter10metaObjectEv
libpapyro.so:_ZNK9Athenaeum9ANDFilter7acceptsERK11QModelIndex
libpapyro.so:_ZNK9Athenaeum9NOTFilter10metaObjectEv
libpapyro.so:_ZNK9Athenaeum9NOTFilter7acceptsERK11QModelIndex
libpapyro.so:_ZThn16_N6Papyro12DocumentViewD0Ev
libpapyro.so:_ZThn16_N6Papyro12DocumentViewD1Ev
libpapyro.so:_ZThn16_N6Papyro12PapyroWindowD0Ev
libpapyro.so:_ZThn16_N6Papyro12PapyroWindowD1Ev
libpapyro.so:_ZThn16_N6Papyro13CitationPopupD0Ev
libpapyro.so:_ZThn16_N6Papyro13CitationPopupD1Ev
libpapyro.so:_ZThn16_N6Papyro13EmbeddedFrameD0Ev
libpapyro.so:_ZThn16_N6Papyro13EmbeddedFrameD1Ev
libpapyro.so:_ZThn16_N6Papyro14LookupRunnable3runEv
libpapyro.so:_ZThn16_N6Papyro14LookupRunnableD0Ev
libpapyro.so:_ZThn16_N6Papyro14LookupRunnableD1Ev
libpapyro.so:_ZThn16_N6Papyro15ProgressLozengeD0Ev
libpapyro.so:_ZThn16_N6Papyro15ProgressLozengeD1Ev
libpapyro.so:_ZThn16_N6Papyro16PapyroTabPrivate14receiveFromBusERK7QStringRK8QVariant
libpapyro.so:_ZThn16_N6Papyro16PapyroTabPrivate16resubscribeToBusEv
libpapyro.so:_ZThn16_N6Papyro16PapyroTabPrivateD0Ev
libpapyro.so:_ZThn16_N6Papyro16PapyroTabPrivateD1Ev
libpapyro.so:_ZThn16_N6Papyro17AnnotatorRunnable3runEv
libpapyro.so:_ZThn16_N6Papyro17AnnotatorRunnableD0Ev
libpapyro.so:_ZThn16_N6Papyro17AnnotatorRunnableD1Ev
libpapyro.so:_ZThn16_N6Papyro18VisualiserRunnable3runEv
libpapyro.so:_ZThn16_N6Papyro22CitationFinderRunnable3runEv
libpapyro.so:_ZThn16_N6Papyro5PagerD0Ev
libpapyro.so:_ZThn16_N6Papyro5PagerD1Ev
libpapyro.so:_ZThn16_N6Papyro6TabBarD0Ev
libpapyro.so:_ZThn16_N6Papyro6TabBarD1Ev
libpapyro.so:_ZThn16_N6Papyro8PageViewD0Ev
libpapyro.so:_ZThn16_N6Papyro8PageViewD1Ev
libpapyro.so:_ZThn16_N6Papyro9PapyroTabD0Ev
libpapyro.so:_ZThn16_N6Papyro9PapyroTabD1Ev
libpapyro.so:_ZThn16_N9Athenaeum10Collection10removeItemEN5boost10shared_ptrINS_8CitationEEE
libpapyro.so:_ZThn16_N9Athenaeum10Collection10takeItemAtEi
libpapyro.so:_ZThn16_N9Athenaeum10Collection11appendItemsERK7QVectorIN5boost10shared_ptrINS_8CitationEEEE
libpapyro.so:_ZThn16_N9Athenaeum10Collection11insertItemsEN5boost10shared_ptrINS_8CitationEEERK7QVectorIS4_E
libpapyro.so:_ZThn16_N9Athenaeum10Collection12prependItemsERK7QVectorIN5boost10shared_ptrINS_8CitationEEEE
libpapyro.so:_ZThn16_N9Athenaeum10Collection12stateChangedENS_20AbstractBibliography5StateE
libpapyro.so:_ZThn16_N9Athenaeum10Collection12titleChangedE7QString
libpapyro.so:_ZThn16_N9Athenaeum10Collection15progressChangedEd
libpapyro.so:_ZThn16_N9Athenaeum10Collection5clearEv
libpapyro.so:_ZThn16_N9Athenaeum10Collection8setStateENS_20AbstractBibliography5StateE
libpapyro.so:_ZThn16_N9Athenaeum10CollectionD0Ev
libpapyro.so:_ZThn16_N9Athenaeum10CollectionD1Ev
libpapyro.so:_ZThn16_N9Athenaeum11ArticleViewD0Ev
libpapyro.so:_ZThn16_N9Athenaeum11ArticleViewD1Ev
libpapyro.so:_ZThn16_N9Athenaeum11LibraryViewD0Ev
libpapyro.so:_ZThn16_N9Athenaeum11LibraryViewD1Ev
libpapyro.so:_ZThn16_N9Athenaeum12Bibliography10removeItemEN5boost10shared_ptrINS_8CitationEEE
libpapyro.so:_ZThn16_N9Athenaeum12Bibliography10takeItemAtEi
libpapyro.so:_ZThn16_N9Athenaeum12Bibliography11appendItemsERK7QVectorIN5boost10shared_ptrINS_8CitationEEEE
libpapyro.so:_ZThn16_N9Athenaeum12Bibliography11insertItemsEN5boost10shared_ptrINS_8CitationEEERK7QVectorIS4_E
libpapyro.so:_ZThn16_N9Athenaeum12Bibliography12prependItemsERK7QVectorIN5boost10shared_ptrINS_8CitationEEEE
libpapyro.so:_ZThn16_N9Athenaeum12Bibliography12stateChangedENS_20AbstractBibliography5StateE
libpapyro.so:_ZThn16_N9Athenaeum12Bibliography12titleChangedE7QString
libpapyro.so:_ZThn16_N9Athenaeum12Bibliography15progressChangedEd
libpapyro.so:_ZThn16_N9Athenaeum12Bibliography5clearEv
libpapyro.so:_ZThn16_N9Athenaeum12Bibliography8setStateENS_20AbstractBibliography5StateE
libpapyro.so:_ZThn16_N9Athenaeum12BibliographyD0Ev
libpapyro.so:_ZThn16_N9Athenaeum12BibliographyD1Ev
libpapyro.so:_ZThn16_N9Athenaeum16ResolverRunnable3runEv
libpapyro.so:_ZThn16_N9Athenaeum16ResolverRunnableD0Ev
libpapyro.so:_ZThn16_N9Athenaeum16ResolverRunnableD1Ev
libpapyro.so:_ZThn16_N9Athenaeum17LibraryStatusIconD0Ev
libpapyro.so:_ZThn16_N9Athenaeum17LibraryStatusIconD1Ev
libpapyro.so:_ZThn16_N9Athenaeum21ResolverQueueRunnable3runEv
libpapyro.so:_ZThn16_N9Athenaeum22BibliographicSearchBoxD0Ev
libpapyro.so:_ZThn16_N9Athenaeum22BibliographicSearchBoxD1Ev
libpapyro.so:_ZThn16_N9Athenaeum23RemoteQueryBibliographyD0Ev
libpapyro.so:_ZThn16_N9Athenaeum23RemoteQueryBibliographyD1Ev
libpapyro.so:_ZThn16_NK6Papyro16PapyroTabPrivate5busIdEv
libpapyro.so:_ZThn16_NK9Athenaeum10Collection10isReadOnlyEv
libpapyro.so:_ZThn16_NK9Athenaeum10Collection10itemForKeyERK7QString
libpapyro.so:_ZThn16_NK9Athenaeum10Collection16persistenceModelEv
libpapyro.so:_ZThn16_NK9Athenaeum10Collection5itemsEv
libpapyro.so:_ZThn16_NK9Athenaeum10Collection5stateEv
libpapyro.so:_ZThn16_NK9Athenaeum10Collection5titleEv
libpapyro.so:_ZThn16_NK9Athenaeum10Collection6itemAtEi
libpapyro.so:_ZThn16_NK9Athenaeum10Collection8progressEv
libpapyro.so:_ZThn16_NK9Athenaeum10Collection9itemCountE6QFlagsINS_8Citation4FlagEE
libpapyro.so:_ZThn16_NK9Athenaeum10Collection9itemForIdERK7QString
libpapyro.so:_ZThn16_NK9Athenaeum12Bibliography10isReadOnlyEv
libpapyro.so:_ZThn16_NK9Athenaeum12Bibliography10itemForKeyERK7QString
libpapyro.so:_ZThn16_NK9Athenaeum12Bibliography16persistenceModelEv
libpapyro.so:_ZThn16_NK9Athenaeum12Bibliography5itemsEv
libpapyro.so:_ZThn16_NK9Athenaeum12Bibliography5stateEv
libpapyro.so:_ZThn16_NK9Athenaeum12Bibliography5titleEv
libpapyro.so:_ZThn16_NK9Athenaeum12Bibliography6itemAtEi
libpapyro.so:_ZThn16_NK9Athenaeum12Bibliography8progressEv
libpapyro.so:_ZThn16_NK9Athenaeum12Bibliography9itemCountE6QFlagsINS_8Citation4FlagEE
libpapyro.so:_ZThn16_NK9Athenaeum12Bibliography9itemForIdERK7QString
libpapyro.so:_ZThn16_NK9Athenaeum23RemoteQueryBibliography10isReadOnlyEv
libpapyro.so:_ZThn16_NK9Athenaeum23RemoteQueryBibliography16persistenceModelEv
libpapyro.so:_ZThn48_N6Papyro19PapyroWindowPrivate14receiveFromBusERK7QStringRK8QVariant
libpapyro.so:_ZThn48_N6Papyro19PapyroWindowPrivateD0Ev
libpapyro.so:_ZThn48_N6Papyro19PapyroWindowPrivateD1Ev
libpapyro.so:_ZltRK6QRectFS1_
libpapyro.so:_ZrsR11QDataStreamR5QListIN5boost10shared_ptrIN5Spine10AnnotationEEEE
libpapyro.so:cJSON_AddItemReferenceToArray
libpapyro.so:cJSON_AddItemReferenceToObject
libpapyro.so:cJSON_AddItemToArray
libpapyro.so:cJSON_AddItemToObject
libpapyro.so:cJSON_CreateArray
libpapyro.so:cJSON_CreateDoubleArray
libpapyro.so:cJSON_CreateFalse
libpapyro.so:cJSON_CreateFloatArray
libpapyro.so:cJSON_CreateIntArray
libpapyro.so:cJSON_CreateNull
libpapyro.so:cJSON_CreateNumber
libpapyro.so:cJSON_CreateObject
libpapyro.so:cJSON_CreateString
libpapyro.so:cJSON_CreateStringArray
libpapyro.so:cJSON_CreateTrue
libpapyro.so:cJSON_Delete
libpapyro.so:cJSON_DeleteItemFromArray
libpapyro.so:cJSON_DeleteItemFromObject
libpapyro.so:cJSON_DetachItemFromArray
libpapyro.so:cJSON_DetachItemFromObject
libpapyro.so:cJSON_GetArrayItem
libpapyro.so:cJSON_GetArraySize
libpapyro.so:cJSON_GetObjectItem
libpapyro.so:cJSON_InitHooks
libpapyro.so:cJSON_Parse
libpapyro.so:cJSON_Print
libpapyro.so:cJSON_PrintUnformatted
libpapyro.so:cJSON_ReplaceItemInArray
libpapyro.so:cJSON_ReplaceItemInObject
libspine.so:SpineAnnotation_addArea
libspine.so:SpineAnnotation_addExtent
libspine.so:SpineAnnotation_areas
libspine.so:SpineAnnotation_clearProperties
libspine.so:SpineAnnotation_equal
libspine.so:SpineAnnotation_equalRegions
libspine.so:SpineAnnotation_extents
libspine.so:SpineAnnotation_getFirstProperty
libspine.so:SpineAnnotation_getProperty
libspine.so:SpineAnnotation_hasProperty
libspine.so:SpineAnnotation_insertProperty
libspine.so:SpineAnnotation_isPublic
libspine.so:SpineAnnotation_properties
libspine.so:SpineAnnotation_removeArea
libspine.so:SpineAnnotation_removeExtent
libspine.so:SpineAnnotation_removeProperty
libspine.so:SpineAnnotation_removePropertyAll
libspine.so:SpineAnnotation_setProperty
libspine.so:SpineAnnotation_setPublic
libspine.so:SpineBuffer_copy
libspine.so:SpineCursor_advanceBlock
libspine.so:SpineCursor_advanceCharacter
libspine.so:SpineCursor_advanceImage
libspine.so:SpineCursor_advanceLine
libspine.so:SpineCursor_advancePage
libspine.so:SpineCursor_advanceRegion
libspine.so:SpineCursor_advanceWord
libspine.so:SpineCursor_blockArea
libspine.so:SpineCursor_blockText
libspine.so:SpineCursor_blockValid
libspine.so:SpineCursor_characterArea
libspine.so:SpineCursor_characterBaseline
libspine.so:SpineCursor_characterColor
libspine.so:SpineCursor_characterFontName
libspine.so:SpineCursor_characterFontSize
libspine.so:SpineCursor_characterSpaceAfter
libspine.so:SpineCursor_characterText
libspine.so:SpineCursor_characterUnderlined
libspine.so:SpineCursor_characterValid
libspine.so:SpineCursor_copy
libspine.so:SpineCursor_gotoPage
libspine.so:SpineCursor_image
libspine.so:SpineCursor_imageArea
libspine.so:SpineCursor_imageValid
libspine.so:SpineCursor_lineArea
libspine.so:SpineCursor_lineText
libspine.so:SpineCursor_lineValid
libspine.so:SpineCursor_pageArea
libspine.so:SpineCursor_pageText
libspine.so:SpineCursor_pageValid
libspine.so:SpineCursor_regionArea
libspine.so:SpineCursor_regionText
libspine.so:SpineCursor_regionValid
libspine.so:SpineCursor_retreatBlock
libspine.so:SpineCursor_retreatCharacter
libspine.so:SpineCursor_retreatImage
libspine.so:SpineCursor_retreatLine
libspine.so:SpineCursor_retreatPage
libspine.so:SpineCursor_retreatRegion
libspine.so:SpineCursor_retreatWord
libspine.so:SpineCursor_wordArea
libspine.so:SpineCursor_wordBaseline
libspine.so:SpineCursor_wordColor
libspine.so:SpineCursor_wordFontName
libspine.so:SpineCursor_wordFontSize
libspine.so:SpineCursor_wordSpaceAfter
libspine.so:SpineCursor_wordText
libspine.so:SpineCursor_wordUnderlined
libspine.so:SpineCursor_wordValid
libspine.so:SpineDocument_addAnnotation
libspine.so:SpineDocument_addAnnotations
libspine.so:SpineDocument_addScratchAnnotation
libspine.so:SpineDocument_addScratchAnnotations
libspine.so:SpineDocument_annotations
libspine.so:SpineDocument_areaSelection
libspine.so:SpineDocument_author
libspine.so:SpineDocument_creationDate
libspine.so:SpineDocument_creator
libspine.so:SpineDocument_data
libspine.so:SpineDocument_deletedItemsScratchId
libspine.so:SpineDocument_doi
libspine.so:SpineDocument_errorString
libspine.so:SpineDocument_filehash
libspine.so:SpineDocument_fingerprints
libspine.so:SpineDocument_imageBased
libspine.so:SpineDocument_iri
libspine.so:SpineDocument_keywords
libspine.so:SpineDocument_modificationDate
libspine.so:SpineDocument_newCursor
libspine.so:SpineDocument_newScratchId
libspine.so:SpineDocument_numberOfPages
libspine.so:SpineDocument_pageLayout
libspine.so:SpineDocument_pii
libspine.so:SpineDocument_pmid
libspine.so:SpineDocument_producer
libspine.so:SpineDocument_removeAnnotation
libspine.so:SpineDocument_removeScratchAnnotation
libspine.so:SpineDocument_render
libspine.so:SpineDocument_renderArea
libspine.so:SpineDocument_resolveExtent
libspine.so:SpineDocument_scratchAnnotations
libspine.so:SpineDocument_search
libspine.so:SpineDocument_searchFrom
libspine.so:SpineDocument_subject
libspine.so:SpineDocument_substr
libspine.so:SpineDocument_text
libspine.so:SpineDocument_textSelection
libspine.so:SpineDocument_title
libspine.so:SpineDocument_uniqueID
libspine.so:SpineDocument_userdef
libspine.so:SpineDocument_userdefSet
libspine.so:SpineDocument_valid
libspine.so:SpineDocument_viewMode
libspine.so:SpineDocument_wordCount
libspine.so:SpineError_failed
libspine.so:SpineError_ok
libspine.so:SpineImage_data
libspine.so:SpineImage_height
libspine.so:SpineImage_size
libspine.so:SpineImage_type
libspine.so:SpineImage_width
libspine.so:SpineString_asUTF8
libspine.so:SpineString_copy
libspine.so:SpineTextExtent_areas
libspine.so:SpineTextExtent_from
libspine.so:SpineTextExtent_search
libspine.so:SpineTextExtent_text
libspine.so:SpineTextExtent_to
libspine.so:_Z19new_SpineAnnotationN5boost10shared_ptrIN5Spine10AnnotationEEEP10SpineError
libspine.so:_Z20copy_SpineTextExtentN5boost10shared_ptrIN5Spine10TextExtentEEEP10SpineError
libspine.so:_Z22SpineTextExtent_extentP19SpineTextExtentImplP10SpineError
libspine.so:_ZN5Spine10Annotation10removeAreaERKNS_4AreaE
libspine.so:_ZN5Spine10Annotation11setPropertyERKNSt7__cxx1112basic_stringIcSt11char_traitsIcESaIcEEES8_
libspine.so:_ZN5Spine10Annotation12removeExtentEN5boost10shared_ptrINS_10TextExtentEEE
libspine.so:_ZN5Spine10Annotation13addCapabilityEN5boost10shared_ptrINS_10CapabilityEEE
libspine.so:_ZN5Spine10Annotation14removePropertyERKNSt7__cxx1112basic_stringIcSt11char_traitsIcESaIcEEE
libspine.so:_ZN5Spine10Annotation14removePropertyERKNSt7__cxx1112basic_stringIcSt11char_traitsIcESaIcEEES8_
libspine.so:_ZN5Spine10Annotation15clearPropertiesEv
libspine.so:_ZN5Spine10Annotation16removeCapabilityEN5boost10shared_ptrINS_10CapabilityEEE
libspine.so:_ZN5Spine10Annotation3endEi
libspine.so:_ZN5Spine10Annotation3endEv
libspine.so:_ZN5Spine10Annotation5beginEi
libspine.so:_ZN5Spine10Annotation5beginEv
libspine.so:_ZN5Spine10Annotation7addAreaERKNS_4AreaE
libspine.so:_ZN5Spine10Annotation8containsEi
libspine.so:_ZN5Spine10Annotation8containsEidd
libspine.so:_ZN5Spine10Annotation9addExtentEN5boost10shared_ptrINS_10TextExtentEEE
libspine.so:_ZN5Spine10Annotation9setPublicEb
libspine.so:_ZN5Spine10AnnotationC1ERKS0_
libspine.so:_ZN5Spine10AnnotationC1Ev
libspine.so:_ZN5Spine10AnnotationC2ERKS0_
libspine.so:_ZN5Spine10AnnotationC2Ev
libspine.so:_ZN5Spine10AnnotationD1Ev
libspine.so:_ZN5Spine10AnnotationD2Ev
libspine.so:_ZN5Spine10TextExtent5cloneEv
libspine.so:_ZN5Spine17new_SpineDocumentEN5boost10shared_ptrINS_8DocumentEEEP10SpineError
libspine.so:_ZN5Spine19share_SpineDocumentEN5boost10shared_ptrINS_8DocumentEEEP10SpineError
libspine.so:_ZN5Spine21share_SpineAnnotationEN5boost10shared_ptrINS_10AnnotationEEEP10SpineError
libspine.so:_ZN5Spine22SpineAnnotation_handleEP19SpineAnnotationImplP10SpineError
libspine.so:_ZN5Spine6Sha25613calculateHashB5cxx11Ev
libspine.so:_ZN5Spine6Sha2566updateEPhm
libspine.so:_ZN5Spine6Sha256C1Ev
libspine.so:_ZN5Spine6Sha256C2Ev
libspine.so:_ZN5Spine6Sha256D1Ev
libspine.so:_ZN5Spine6Sha256D2Ev
libspine.so:_ZN5Spine7compileERKNSt7__cxx114listINS_4AreaESaIS2_EEE
libspine.so:_ZN5Spine8Document10get_prefixERKNSt7__cxx1112basic_stringIcSt11char_traitsIcESaIcEEEm
libspine.so:_ZN5Spine8Document10imageBasedEv
libspine.so:_ZN5Spine8Document10renderAreaERKNS_4AreaEd
libspine.so:_ZN5Spine8Document10searchFromERKNS_12TextIteratorERKNSt7__cxx1112basic_stringIcSt11char_traitsIcESaIcEEEi
libspine.so:_ZN5Spine8Document10setUserdefEPv
libspine.so:_ZN5Spine8Document12creationDateEv
libspine.so:_ZN5Spine8Document12fingerprintsB5cxx11Ev
libspine.so:_ZN5Spine8Document13_cachedExtentENS_12TextIteratorES1_
libspine.so:_ZN5Spine8Document13addAnnotationEN5boost10shared_ptrINS_10AnnotationEEERKNSt7__cxx1112basic_stringIcSt11char_traitsIcESaIcEEE
libspine.so:_ZN5Spine8Document13resolveExtentEiddidd
libspine.so:_ZN5Spine8Document14addAnnotationsERKSt3setIN5boost10shared_ptrINS_10AnnotationEEESt4lessIS5_ESaIS5_EERKNSt7__cxx1112basic_stringIcSt11char_traitsIcESaIcEEE
libspine.so:_ZN5Spine8Document14clearSelectionERKNSt7__cxx1112basic_stringIcSt11char_traitsIcESaIcEEE
libspine.so:_ZN5Spine8Document16modificationDateEv
libspine.so:_ZN5Spine8Document16removeAnnotationEN5boost10shared_ptrINS_10AnnotationEEERKNSt7__cxx1112basic_stringIcSt11char_traitsIcESaIcEEE
libspine.so:_ZN5Spine8Document16setAreaSelectionERKNS_4AreaERKNSt7__cxx1112basic_stringIcSt11char_traitsIcESaIcEEE
libspine.so:_ZN5Spine8Document16setAreaSelectionERKSt3setINS_4AreaESt4lessIS2_ESaIS2_EERKNSt7__cxx1112basic_stringIcSt11char_traitsIcESaIcEEE
libspine.so:_ZN5Spine8Document16setTextSelectionERKNS_13TextSelectionERKNSt7__cxx1112basic_stringIcSt11char_traitsIcESaIcEEE
libspine.so:_ZN5Spine8Document17imageFingerprint1B5cxx11Ev
libspine.so:_ZN5Spine8Document17imageFingerprint2B5cxx11Ev
libspine.so:_ZN5Spine8Document17removeAnnotationsERKSt3setIN5boost10shared_ptrINS_10AnnotationEEESt4lessIS5_ESaIS5_EERKNSt7__cxx1112basic_stringIcSt11char_traitsIcESaIcEEE
libspine.so:_ZN5Spine8Document18addToAreaSelectionERKNS_4AreaERKNSt7__cxx1112basic_stringIcSt11char_traitsIcESaIcEEE
libspine.so:_ZN5Spine8Document18addToAreaSelectionERKSt3setINS_4AreaESt4lessIS2_ESaIS2_EERKNSt7__cxx1112basic_stringIcSt11char_traitsIcESaIcEEE
libspine.so:_ZN5Spine8Document18addToTextSelectionERKNS_13TextSelectionERKNSt7__cxx1112basic_stringIcSt11char_traitsIcESaIcEEE
libspine.so:_ZN5Spine8Document18clearAreaSelectionERKNSt7__cxx1112basic_stringIcSt11char_traitsIcESaIcEEE
libspine.so:_ZN5Spine8Document18clearTextSelectionERKNSt7__cxx1112basic_stringIcSt11char_traitsIcESaIcEEE
libspine.so:_ZN5Spine8Document21characterFingerprint1B5cxx11Ev
libspine.so:_ZN5Spine8Document21characterFingerprint2B5cxx11Ev
libspine.so:_ZN5Spine8Document23removeFromAreaSelectionERKSt3setINS_4AreaESt4lessIS2_ESaIS2_EERKNSt7__cxx1112basic_stringIcSt11char_traitsIcESaIcEEE
libspine.so:_ZN5Spine8Document23removeFromTextSelectionERKNS_13TextSelectionERKNSt7__cxx1112basic_stringIcSt11char_traitsIcESaIcEEE
libspine.so:_ZN5Spine8Document25connectAnnotationsChangedEPFvPvRKNSt7__cxx1112basic_stringIcSt11char_traitsIcESaIcEEESt3setIN5boost10shared_ptrINS_10AnnotationEEESt4lessISE_ESaISE_EEbES1_S9_
libspine.so:_ZN5Spine8Document26calculateImageFingerprintsEv
libspine.so:_ZN5Spine8Document27connectAreaSelectionChangedEPFvPvRKNSt7__cxx1112basic_stringIcSt11char_traitsIcESaIcEEESt3setINS_4AreaESt4lessISB_ESaISB_EEbES1_S9_
libspine.so:_ZN5Spine8Document27connectTextSelectionChangedEPFvPvRKNSt7__cxx1112basic_stringIcSt11char_traitsIcESaIcEEESt3setIN5boost10shared_ptrINS_10TextExtentEEENS_13ExtentCompareISD_EESaISE_EEbES1_S9_
libspine.so:_ZN5Spine8Document28connectAnyAnnotationsChangedEPFvPvRKNSt7__cxx1112basic_stringIcSt11char_traitsIcESaIcEEESt3setIN5boost10shared_ptrINS_10AnnotationEEESt4lessISE_ESaISE_EEbES1_
libspine.so:_ZN5Spine8Document28disconnectAnnotationsChangedEPFvPvRKNSt7__cxx1112basic_stringIcSt11char_traitsIcESaIcEEESt3setIN5boost10shared_ptrINS_10AnnotationEEESt4lessISE_ESaISE_EEbES1_S9_
libspine.so:_ZN5Spine8Document30calculateCharacterFingerprintsEv
libspine.so:_ZN5Spine8Document30connectAnyAreaSelectionChangedEPFvPvRKNSt7__cxx1112basic_stringIcSt11char_traitsIcESaIcEEESt3setINS_4AreaESt4lessISB_ESaISB_EEbES1_
libspine.so:_ZN5Spine8Document30connectAnyTextSelectionChangedEPFvPvRKNSt7__cxx1112basic_stringIcSt11char_traitsIcESaIcEEESt3setIN5boost10shared_ptrINS_10TextExtentEEENS_13ExtentCompareISD_EESaISE_EEbES1_
libspine.so:_ZN5Spine8Document30disconnectAreaSelectionChangedEPFvPvRKNSt7__cxx1112basic_stringIcSt11char_traitsIcESaIcEEESt3setINS_4AreaESt4lessISB_ESaISB_EEbES1_S9_
libspine.so:_ZN5Spine8Document30disconnectTextSelectionChangedEPFvPvRKNSt7__cxx1112basic_stringIcSt11char_traitsIcESaIcEEESt3setIN5boost10shared_ptrINS_10TextExtentEEENS_13ExtentCompareISD_EESaISE_EEbES1_S9_
libspine.so:_ZN5Spine8Document31disconnectAnyAnnotationsChangedEPFvPvRKNSt7__cxx1112basic_stringIcSt11char_traitsIcESaIcEEESt3setIN5boost10shared_ptrINS_10AnnotationEEESt4lessISE_ESaISE_EEbES1_
libspine.so:_ZN5Spine8Document33disconnectAnyAreaSelectionChangedEPFvPvRKNSt7__cxx1112basic_stringIcSt11char_traitsIcESaIcEEESt3setINS_4AreaESt4lessISB_ESaISB_EEbES1_
libspine.so:_ZN5Spine8Document33disconnectAnyTextSelectionChangedEPFvPvRKNSt7__cxx1112basic_stringIcSt11char_traitsIcESaIcEEESt3setIN5boost10shared_ptrINS_10TextExtentEEENS_13ExtentCompareISD_EESaISE_EEbES1_
libspine.so:_ZN5Spine8Document3doiB5cxx11Ev
libspine.so:_ZN5Spine8Document3endEv
libspine.so:_ZN5Spine8Document3iriB5cxx11Ev
libspine.so:_ZN5Spine8Document3piiB5cxx11Ev
libspine.so:_ZN5Spine8Document4pmidB5cxx11Ev
libspine.so:_ZN5Spine8Document4textB5cxx11Ev
libspine.so:_ZN5Spine8Document5beginEv
libspine.so:_ZN5Spine8Document5titleB5cxx11Ev
libspine.so:_ZN5Spine8Document6authorB5cxx11Ev
libspine.so:_ZN5Spine8Document6renderEid
libspine.so:_ZN5Spine8Document6searchERKNSt7__cxx1112basic_stringIcSt11char_traitsIcESaIcEEEi
libspine.so:_ZN5Spine8Document6substrEii
libspine.so:_ZN5Spine8Document7creatorB5cxx11Ev
libspine.so:_ZN5Spine8Document7subjectB5cxx11Ev
libspine.so:_ZN5Spine8Document7userdefEv
libspine.so:_ZN5Spine8Document8cursorAtEidd
libspine.so:_ZN5Spine8Document8keywordsB5cxx11Ev
libspine.so:_ZN5Spine8Document8producerB5cxx11Ev
libspine.so:_ZN5Spine8Document8uniqueIDB5cxx11Ev
libspine.so:_ZN5Spine8Document9wordCountEv
libspine.so:_ZN5Spine8DocumentC2EPv
libspine.so:_ZN5Spine8DocumentD0Ev
libspine.so:_ZN5Spine8DocumentD1Ev
libspine.so:_ZN5Spine8DocumentD2Ev
libspine.so:_ZNK5Spine10Annotation10propertiesB5cxx11Ev
libspine.so:_ZNK5Spine10Annotation11getPropertyERKNSt7__cxx1112basic_stringIcSt11char_traitsIcESaIcEEE
libspine.so:_ZNK5Spine10Annotation11hasPropertyERKNSt7__cxx1112basic_stringIcSt11char_traitsIcESaIcEEE
libspine.so:_ZNK5Spine10Annotation11hasPropertyERKNSt7__cxx1112basic_stringIcSt11char_traitsIcESaIcEEES8_
libspine.so:_ZNK5Spine10Annotation12capabilitiesB5cxx11Ev
libspine.so:_ZNK5Spine10Annotation12equalRegionsERKS0_
libspine.so:_ZNK5Spine10Annotation16getFirstPropertyERKNSt7__cxx1112basic_stringIcSt11char_traitsIcESaIcEEE
libspine.so:_ZNK5Spine10Annotation3endEv
libspine.so:_ZNK5Spine10Annotation4textERKNSt7__cxx1112basic_stringIcSt11char_traitsIcESaIcEEE
libspine.so:_ZNK5Spine10Annotation5areasEv
libspine.so:_ZNK5Spine10Annotation5beginEv
libspine.so:_ZNK5Spine10Annotation7extentsEv
libspine.so:_ZNK5Spine10Annotation8isPublicEv
libspine.so:_ZNK5Spine10AnnotationeqERKS0_
libspine.so:_ZNK5Spine10TextExtent10_cacheTextEv
libspine.so:_ZNK5Spine10TextExtent13subExtentUtf8Emm
libspine.so:_ZNK5Spine10TextExtent16_cachedSubExtentEmmRKSt3mapImNS_12TextIteratorESt4lessImESaISt4pairIKmS2_EEE
libspine.so:_ZNK5Spine10TextExtent18iteratorFromOffsetEm
libspine.so:_ZNK5Spine10TextExtent19_iteratorFromOffsetEmRKSt3mapImNS_12TextIteratorESt4lessImESaISt4pairIKmS2_EEE
libspine.so:_ZNK5Spine10TextExtent22iteratorFromOffsetUtf8Em
libspine.so:_ZNK5Spine10TextExtent5areasB5cxx11Ev
libspine.so:_ZNK5Spine10TextExtent6searchERKNSt7__cxx1112basic_stringIcSt11char_traitsIcESaIcEEEi
libspine.so:_ZNK5Spine10TextExtent9subExtentEmm
libspine.so:_ZNK5Spine6Sha2567isValidEv
libspine.so:_ZNK5Spine8Document11annotationsERKNSt7__cxx1112basic_stringIcSt11char_traitsIcESaIcEEE
libspine.so:_ZNK5Spine8Document12newScratchIdERKNSt7__cxx1112basic_stringIcSt11char_traitsIcESaIcEEE
libspine.so:_ZNK5Spine8Document13annotationsAtEiRKNSt7__cxx1112basic_stringIcSt11char_traitsIcESaIcEEE
libspine.so:_ZNK5Spine8Document13annotationsAtEiddRKNSt7__cxx1112basic_stringIcSt11char_traitsIcESaIcEEE
libspine.so:_ZNK5Spine8Document13areaSelectionERKNSt7__cxx1112basic_stringIcSt11char_traitsIcESaIcEEE
libspine.so:_ZNK5Spine8Document13selectionTextERKNSt7__cxx1112basic_stringIcSt11char_traitsIcESaIcEEE
libspine.so:_ZNK5Spine8Document13textSelectionERKNSt7__cxx1112basic_stringIcSt11char_traitsIcESaIcEEE
libspine.so:_ZNK5Spine8Document15annotationListsB5cxx11Ev
libspine.so:_ZNK5Spine8Document15annotationsByIdERKNSt7__cxx1112basic_stringIcSt11char_traitsIcESaIcEEES8_
libspine.so:_ZNK5Spine8Document19annotationsSelectedERKNS_13TextSelectionERKNSt7__cxx1112basic_stringIcSt11char_traitsIcESaIcEEE
libspine.so:_ZNK5Spine8Document21annotationsByParentIdERKNSt7__cxx1112basic_stringIcSt11char_traitsIcESaIcEEES8_
libspine.so:_ZNK5Spine8Document21deletedItemsScratchIdB5cxx11Ev
libspine.so:_ZNK5Spine9Character4textB5cxx11Ev
libspine.so:_ZltRKN5boost10shared_ptrIN5Spine10TextExtentEEES5_
libspine.so:delete_SpineAnnotation
libspine.so:delete_SpineAnnotationList
libspine.so:delete_SpineAreaList
libspine.so:delete_SpineBuffer
libspine.so:delete_SpineCursor
libspine.so:delete_SpineDocument
libspine.so:delete_SpineImage
libspine.so:delete_SpineMap
libspine.so:delete_SpineSet
libspine.so:delete_SpineString
libspine.so:delete_SpineTextExtent
libspine.so:delete_SpineTextExtentList
libspine.so:new_SpineAnnotation
libspine.so:new_SpineAnnotationList
libspine.so:new_SpineAreaList
libspine.so:new_SpineBuffer
libspine.so:new_SpineDocument
libspine.so:new_SpineImage
libspine.so:new_SpineMap
libspine.so:new_SpineSet
libspine.so:new_SpineStringFromUTF8
libspine.so:new_SpineTextExtent
libspine.so:new_SpineTextExtentList
libspine.so:unsafe_encode_char
libspine.so:utf8proc_NFC
libspine.so:utf8proc_NFD
libspine.so:utf8proc_NFKC
libspine.so:utf8proc_NFKD
libspine.so:utf8proc_category
libspine.so:utf8proc_category_string
libspine.so:utf8proc_charwidth
libspine.so:utf8proc_codepoint_valid
libspine.so:utf8proc_decompose
libspine.so:utf8proc_decompose_char
libspine.so:utf8proc_encode_char
libspine.so:utf8proc_errmsg
libspine.so:utf8proc_get_property
libspine.so:utf8proc_grapheme_break
libspine.so:utf8proc_iterate
libspine.so:utf8proc_map
libspine.so:utf8proc_reencode
libspine.so:utf8proc_tolower
libspine.so:utf8proc_toupper
libspine.so:utf8proc_version
libutopia2.so:_Z5qHashRK15QSslCertificate
libutopia2.so:_ZN6Utopia10AtPositionC1Ei
libutopia2.so:_ZN6Utopia10AtPositionC2Ei
libutopia2.so:_ZN6Utopia10AtPositionD0Ev
libutopia2.so:_ZN6Utopia10AtPositionD1Ev
libutopia2.so:_ZN6Utopia10AtPositionD2Ev
libutopia2.so:_ZN6Utopia10AtPositionclEPNS_4NodeE
libutopia2.so:_ZN6Utopia10BusPrivate11qt_metacallEN11QMetaObject4CallEiPPv
libutopia2.so:_ZN6Utopia10BusPrivate11qt_metacastEPKc
libutopia2.so:_ZN6Utopia10BusPrivate12routeMessageERK7QStringS3_RK8QVariant
libutopia2.so:_ZN6Utopia10BusPrivateC1EPNS_3BusE
libutopia2.so:_ZN6Utopia10BusPrivateC2EPNS_3BusE
libutopia2.so:_ZN6Utopia10FileFormat15getForExtensionERK7QStringi
libutopia2.so:_ZN6Utopia10FileFormat3allEv
libutopia2.so:_ZN6Utopia10FileFormat3getERK7QString
libutopia2.so:_ZN6Utopia10FileFormat3getEi
libutopia2.so:_ZN6Utopia10FileFormat6createERK7QStringi
libutopia2.so:_ZN6Utopia10FileFormatC1ERK7QStringi
libutopia2.so:_ZN6Utopia10FileFormatC2ERK7QStringi
libutopia2.so:_ZN6Utopia10MutexGuardC1ERNS_5MutexEb
libutopia2.so:_ZN6Utopia10MutexGuardC2ERNS_5MutexEb
libutopia2.so:_ZN6Utopia10MutexGuardD1Ev
libutopia2.so:_ZN6Utopia10MutexGuardD2Ev
libutopia2.so:_ZN6Utopia10Nucleotide3getE7QStringb
libutopia2.so:_ZN6Utopia10Serializer14registerFormatEPNS_10FileFormatEPS0_
libutopia2.so:_ZN6Utopia10Serializer3allEv
libutopia2.so:_ZN6Utopia10Serializer3getEPNS_10FileFormatE
libutopia2.so:_ZN6Utopia10Serializer3getERK7QString
libutopia2.so:_ZN6Utopia10Serializer7Context10setMessageERK7QString
libutopia2.so:_ZN6Utopia10Serializer7Context12setErrorCodeENS0_9ErrorCodeE
libutopia2.so:_ZN6Utopia10Serializer7ContextC1EPKS0_
libutopia2.so:_ZN6Utopia10Serializer7ContextC2EPKS0_
libutopia2.so:_ZN6Utopia10createNodeEPNS_4NodeES1_
libutopia2.so:_ZN6Utopia10decryptMapERK10QByteArrayRK7QString
libutopia2.so:_ZN6Utopia10encryptMapERK4QMapI7QString8QVariantERKS1_
libutopia2.so:_ZN6Utopia11Initializer10setMessageERK7QString
libutopia2.so:_ZN6Utopia11Initializer11qt_metacallEN11QMetaObject4CallEiPPv
libutopia2.so:_ZN6Utopia11Initializer11qt_metacastEPKc
libutopia2.so:_ZN6Utopia11Initializer12setErrorCodeENS0_9ErrorCodeE
libutopia2.so:_ZN6Utopia11Initializer13prerequisitesEv
libutopia2.so:_ZN6Utopia11Initializer14messageChangedE7QString
libutopia2.so:_ZN6Utopia11Initializer7cleanupEv
libutopia2.so:_ZN6Utopia11InitializerC2Ev
libutopia2.so:_ZN6Utopia11VariantBaseD0Ev
libutopia2.so:_ZN6Utopia11VariantBaseD1Ev
libutopia2.so:_ZN6Utopia11VariantBaseD2Ev
libutopia2.so:_ZN6Utopia11config_pathEv
libutopia2.so:_ZN6Utopia11createClassEPNS_4NodeES1_
libutopia2.so:_ZN6Utopia11plugin_pathEv
libutopia2.so:_ZN6Utopia12HasAttributeC1E7QString
libutopia2.so:_ZN6Utopia12HasAttributeC2E7QString
libutopia2.so:_ZN6Utopia12HasAttributeD0Ev
libutopia2.so:_ZN6Utopia12HasAttributeD1Ev
libutopia2.so:_ZN6Utopia12HasAttributeD2Ev
libutopia2.so:_ZN6Utopia12HasAttributeclEPNS_4NodeE
libutopia2.so:_ZN6Utopia12SplashHelper11qt_metacallEN11QMetaObject4CallEiPPv
libutopia2.so:_ZN6Utopia12SplashHelper11qt_metacastEPKc
libutopia2.so:_ZN6Utopia12SplashHelper14messageChangedERK7QString
libutopia2.so:_ZN6Utopia12current_pathEv
libutopia2.so:_ZN6Utopia12profile_pathENS_15ProfilePathPartE
libutopia2.so:_ZN6Utopia12revisionHashEv
libutopia2.so:_ZN6Utopia12versionMajorEv
libutopia2.so:_ZN6Utopia12versionMinorEv
libutopia2.so:_ZN6Utopia12versionPatchEv
libutopia2.so:_ZN6Utopia13Configuration11qt_metacallEN11QMetaObject4CallEiPPv
libutopia2.so:_ZN6Utopia13Configuration11qt_metacastEPKc
libutopia2.so:_ZN6Utopia13Configuration12titleChangedERK7QString
libutopia2.so:_ZN6Utopia13Configuration20configurationChangedERK7QString
libutopia2.so:_ZN6Utopia13Configuration20configurationChangedEv
libutopia2.so:_ZN6Utopia13Configuration3delERK7QString
libutopia2.so:_ZN6Utopia13Configuration3setERK7QStringRK8QVariant
libutopia2.so:_ZN6Utopia13Configuration8instanceERK5QUuid
libutopia2.so:_ZN6Utopia13Configuration8setTitleE7QString
libutopia2.so:_ZN6Utopia13ConfigurationC1ERK5QUuid
libutopia2.so:_ZN6Utopia13ConfigurationC2ERK5QUuid
libutopia2.so:_ZN6Utopia13ConfigurationD0Ev
libutopia2.so:_ZN6Utopia13ConfigurationD1Ev
libutopia2.so:_ZN6Utopia13ConfigurationD2Ev
libutopia2.so:_ZN6Utopia13PluginManager11qt_metacallEN11QMetaObject4CallEiPPv
libutopia2.so:_ZN6Utopia13PluginManager11qt_metacastEPKc
libutopia2.so:_ZN6Utopia13PluginManager6removeEPNS_6PluginE
libutopia2.so:_ZN6Utopia13PluginManager7resolveERK5QUuid
libutopia2.so:_ZN6Utopia13PluginManager7resolveERK9QFileInfo
libutopia2.so:_ZN6Utopia13PluginManager8instanceEv
libutopia2.so:_ZN6Utopia13PluginManagerC1Ev
libutopia2.so:_ZN6Utopia13PluginManagerC2Ev
libutopia2.so:_ZN6Utopia13PluginPrivate10setEnabledEb
libutopia2.so:_ZN6Utopia13PluginPrivate11qt_metacallEN11QMetaObject4CallEiPPv
libutopia2.so:_ZN6Utopia13PluginPrivate11qt_metacastEPKc
libutopia2.so:_ZN6Utopia13PluginPrivate11setFilePathERK7QString
libutopia2.so:_ZN6Utopia13PluginPrivateC1EPNS_6PluginERK5QUuid
libutopia2.so:_ZN6Utopia13PluginPrivateC1EPNS_6PluginERK9QFileInfo
libutopia2.so:_ZN6Utopia13PluginPrivateC2EPNS_6PluginERK5QUuid
libutopia2.so:_ZN6Utopia13PluginPrivateC2EPNS_6PluginERK9QFileInfo
libutopia2.so:_ZN6Utopia13_PropertyList14const_iteratorC1EPNS_4NodeERKNS_8PropertyEPNS_4ListENS7_8iteratorEb
libutopia2.so:_ZN6Utopia13_PropertyList14const_iteratorC1Ev
libutopia2.so:_ZN6Utopia13_PropertyList14const_iteratorC2EPNS_4NodeERKNS_8PropertyEPNS_4ListENS7_8iteratorEb
libutopia2.so:_ZN6Utopia13_PropertyList14const_iteratorC2Ev
libutopia2.so:_ZN6Utopia13_PropertyList14const_iteratoraSERKNS0_8iteratorE
libutopia2.so:_ZN6Utopia13_PropertyList2atEm
libutopia2.so:_ZN6Utopia13_PropertyList3endEv
libutopia2.so:_ZN6Utopia13_PropertyList4backEv
libutopia2.so:_ZN6Utopia13_PropertyList4findEPNS_4NodeE
libutopia2.so:_ZN6Utopia13_PropertyList4rendEv
libutopia2.so:_ZN6Utopia13_PropertyList5beginEv
libutopia2.so:_ZN6Utopia13_PropertyList5clearEv
libutopia2.so:_ZN6Utopia13_PropertyList5frontEv
libutopia2.so:_ZN6Utopia13_PropertyList6appendEPNS_4NodeE
libutopia2.so:_ZN6Utopia13_PropertyList6rbeginEv
libutopia2.so:_ZN6Utopia13_PropertyList6removeEPNS_4NodeE
libutopia2.so:_ZN6Utopia13_PropertyList8iteratorC1EPNS_4NodeERKNS_8PropertyEPNS_4ListENS7_8iteratorEb
libutopia2.so:_ZN6Utopia13_PropertyList8iteratorC1ERKS1_
libutopia2.so:_ZN6Utopia13_PropertyList8iteratorC1Ev
libutopia2.so:_ZN6Utopia13_PropertyList8iteratorC2EPNS_4NodeERKNS_8PropertyEPNS_4ListENS7_8iteratorEb
libutopia2.so:_ZN6Utopia13_PropertyList8iteratorC2ERKS1_
libutopia2.so:_ZN6Utopia13_PropertyList8iteratorC2Ev
libutopia2.so:_ZN6Utopia13_PropertyList8iteratorD1Ev
libutopia2.so:_ZN6Utopia13_PropertyList8iteratorD2Ev
libutopia2.so:_ZN6Utopia13_PropertyList8iteratoraSERKS1_
libutopia2.so:_ZN6Utopia13_PropertyList8iteratormmEi
libutopia2.so:_ZN6Utopia13_PropertyList8iteratormmEv
libutopia2.so:_ZN6Utopia13_PropertyList8iteratorppEi
libutopia2.so:_ZN6Utopia13_PropertyList8iteratorppEv
libutopia2.so:_ZN6Utopia13_PropertyListC1EPNS_4NodeERKNS_8PropertyE
libutopia2.so:_ZN6Utopia13_PropertyListC2EPNS_4NodeERKNS_8PropertyE
libutopia2.so:_ZN6Utopia13resource_pathEv
libutopia2.so:_ZN6Utopia13versionStringEb
libutopia2.so:_ZN6Utopia14SemaphoreGuardC1ERNS_9SemaphoreEb
libutopia2.so:_ZN6Utopia14SemaphoreGuardC2ERNS_9SemaphoreEb
libutopia2.so:_ZN6Utopia14SemaphoreGuardD1Ev
libutopia2.so:_ZN6Utopia14SemaphoreGuardD2Ev
libutopia2.so:_ZN6Utopia14createPropertyEPNS_4NodeES1_
libutopia2.so:_ZN6Utopia14revisionBranchEv
libutopia2.so:_ZN6Utopia15PACProxyFactory10queryProxyERK18QNetworkProxyQuery
libutopia2.so:_ZN6Utopia15PACProxyFactory11qt_metacallEN11QMetaObject4CallEiPPv
libutopia2.so:_ZN6Utopia15PACProxyFactory11qt_metacastEPKc
libutopia2.so:_ZN6Utopia15PACProxyFactory14getCredentialsERK7QStringS3_bPS1_S4_
libutopia2.so:_ZN6Utopia15PACProxyFactory16queryProxyStringERK18QNetworkProxyQuery
libutopia2.so:_ZN6Utopia15PACProxyFactory27proxyAuthenticationRequiredERK13QNetworkProxyP14QAuthenticator
libutopia2.so:_ZN6Utopia15PACProxyFactory9setScriptEPNS_9PACScriptE
libutopia2.so:_ZN6Utopia15PACProxyFactoryC1EPNS_9PACScriptE
libutopia2.so:_ZN6Utopia15PACProxyFactoryC2EPNS_9PACScriptE
libutopia2.so:_ZN6Utopia15PACProxyFactoryD0Ev
libutopia2.so:_ZN6Utopia15PACProxyFactoryD1Ev
libutopia2.so:_ZN6Utopia15PACProxyFactoryD2Ev
libutopia2.so:_ZN6Utopia15createAuthorityEPNS_4NodeE
libutopia2.so:_ZN6Utopia15decryptPasswordERK7QStringS2_
libutopia2.so:_ZN6Utopia15encryptPasswordERK7QStringS2_
libutopia2.so:_ZN6Utopia15executable_pathEv
libutopia2.so:_ZN6Utopia15forwardPropertyEPNS_4NodeE
libutopia2.so:_ZN6Utopia15reversePropertyEPNS_4NodeE
libutopia2.so:_ZN6Utopia16CredentialDialog9showEventEP10QShowEvent
libutopia2.so:_ZN6Utopia16CredentialDialogC1Ev
libutopia2.so:_ZN6Utopia16CredentialDialogC2Ev
libutopia2.so:_ZN6Utopia16ExtensionLibrary13loadDirectoryERK4QDirb
libutopia2.so:_ZN6Utopia16ExtensionLibrary4loadERK7QString
libutopia2.so:_ZN6Utopia16ExtensionLibrary4wrapEPNS_7LibraryE
libutopia2.so:_ZN6Utopia16ExtensionLibraryC1EPNS_7LibraryERK7QString
libutopia2.so:_ZN6Utopia16ExtensionLibraryC2EPNS_7LibraryERK7QString
libutopia2.so:_ZN6Utopia16ExtensionLibraryD1Ev
libutopia2.so:_ZN6Utopia16ExtensionLibraryD2Ev
libutopia2.so:_ZN6Utopia17reflexivePropertyEPNS_4NodeE
libutopia2.so:_ZN6Utopia18globalProxyFactoryEv
libutopia2.so:_ZN6Utopia19LocalSocketBusAgent11qt_metacallEN11QMetaObject4CallEiPPv
libutopia2.so:_ZN6Utopia19LocalSocketBusAgent11qt_metacastEPKc
libutopia2.so:_ZN6Utopia19LocalSocketBusAgent14receiveFromBusERK7QStringRK8QVariant
libutopia2.so:_ZN6Utopia19LocalSocketBusAgent16resubscribeToBusEv
libutopia2.so:_ZN6Utopia19LocalSocketBusAgentC1E7QStringS1_P7QObject
libutopia2.so:_ZN6Utopia19LocalSocketBusAgentC2E7QStringS1_P7QObject
libutopia2.so:_ZN6Utopia19LocalSocketBusAgentD0Ev
libutopia2.so:_ZN6Utopia19LocalSocketBusAgentD1Ev
libutopia2.so:_ZN6Utopia19LocalSocketBusAgentD2Ev
libutopia2.so:_ZN6Utopia19NetworkReplyBlocker11qt_metacallEN11QMetaObject4CallEiPPv
libutopia2.so:_ZN6Utopia19NetworkReplyBlocker11qt_metacastEPKc
libutopia2.so:_ZN6Utopia19NetworkReplyBlocker4execE6QFlagsIN10QEventLoop17ProcessEventsFlagEE
libutopia2.so:_ZN6Utopia19NetworkReplyBlocker4quitEv
libutopia2.so:_ZN6Utopia19NetworkReplyBlockerC1EP7QObject
libutopia2.so:_ZN6Utopia19NetworkReplyBlockerC2EP7QObject
libutopia2.so:_ZN6Utopia19NetworkReplyBlockerD0Ev
libutopia2.so:_ZN6Utopia19NetworkReplyBlockerD1Ev
libutopia2.so:_ZN6Utopia19NetworkReplyBlockerD2Ev
libutopia2.so:_ZN6Utopia20ConfigurationPrivate4loadEv
libutopia2.so:_ZN6Utopia20ConfigurationPrivate4saveEv
libutopia2.so:_ZN6Utopia20ConfigurationPrivateC1EPNS_13ConfigurationERK5QUuid
libutopia2.so:_ZN6Utopia20ConfigurationPrivateC2EPNS_13ConfigurationERK5QUuid
libutopia2.so:_ZN6Utopia20ConfigurationPrivateD0Ev
libutopia2.so:_ZN6Utopia20ConfigurationPrivateD1Ev
libutopia2.so:_ZN6Utopia20ConfigurationPrivateD2Ev
libutopia2.so:_ZN6Utopia20NetworkAccessManager10on_timeoutEP7QObject
libutopia2.so:_ZN6Utopia20NetworkAccessManager10stopTimersEv
libutopia2.so:_ZN6Utopia20NetworkAccessManager11getAndBlockERK15QNetworkRequest
libutopia2.so:_ZN6Utopia20NetworkAccessManager11on_finishedEv
libutopia2.so:_ZN6Utopia20NetworkAccessManager11qt_metacallEN11QMetaObject4CallEiPPv
libutopia2.so:_ZN6Utopia20NetworkAccessManager11qt_metacastEPKc
libutopia2.so:_ZN6Utopia20NetworkAccessManager12on_sslErrorsERK5QListI9QSslErrorE
libutopia2.so:_ZN6Utopia20NetworkAccessManager13createRequestEN21QNetworkAccessManager9OperationERK15QNetworkRequestP9QIODevice
libutopia2.so:_ZN6Utopia20NetworkAccessManager13restartTimersEv
libutopia2.so:_ZN6Utopia20NetworkAccessManager17on_uploadProgressExx
libutopia2.so:_ZN6Utopia20NetworkAccessManager18setUserAgentStringERK7QString
libutopia2.so:_ZN6Utopia20NetworkAccessManager19on_downloadProgressExx
libutopia2.so:_ZN6Utopia20NetworkAccessManager5eventEP6QEvent
libutopia2.so:_ZN6Utopia20NetworkAccessManagerC1EP7QObject
libutopia2.so:_ZN6Utopia20NetworkAccessManagerC2EP7QObject
libutopia2.so:_ZN6Utopia20NetworkAccessManagerD0Ev
libutopia2.so:_ZN6Utopia20NetworkAccessManagerD1Ev
libutopia2.so:_ZN6Utopia20NetworkAccessManagerD2Ev
libutopia2.so:_ZN6Utopia20PluginManagerPrivate11qt_metacallEN11QMetaObject4CallEiPPv
libutopia2.so:_ZN6Utopia20PluginManagerPrivate11qt_metacastEPKc
libutopia2.so:_ZN6Utopia20PluginManagerPrivate4loadEv
libutopia2.so:_ZN6Utopia20PluginManagerPrivate4saveEv
libutopia2.so:_ZN6Utopia20PluginManagerPrivateC1EPNS_13PluginManagerE
libutopia2.so:_ZN6Utopia20PluginManagerPrivateC2EPNS_13PluginManagerE
libutopia2.so:_ZN6Utopia20PluginManagerPrivateD0Ev
libutopia2.so:_ZN6Utopia20PluginManagerPrivateD1Ev
libutopia2.so:_ZN6Utopia20PluginManagerPrivateD2Ev
libutopia2.so:_ZN6Utopia20private_library_pathEv
libutopia2.so:_ZN6Utopia22CertificateErrorDialog11qt_metacallEN11QMetaObject4CallEiPPv
libutopia2.so:_ZN6Utopia22CertificateErrorDialog11qt_metacastEPKc
libutopia2.so:_ZN6Utopia22CertificateErrorDialogC1ERK7QStringRK5QListI9QSslErrorEP7QWidget6QFlagsIN2Qt10WindowTypeEE
libutopia2.so:_ZN6Utopia22CertificateErrorDialogC2ERK7QStringRK5QListI9QSslErrorEP7QWidget6QFlagsIN2Qt10WindowTypeEE
libutopia2.so:_ZN6Utopia22PACProxyFactoryPrivate11qt_metacallEN11QMetaObject4CallEiPPv
libutopia2.so:_ZN6Utopia22PACProxyFactoryPrivate11qt_metacastEPKc
libutopia2.so:_ZN6Utopia22PACProxyFactoryPrivate21requestNewCredentialsE7QStringS1_
libutopia2.so:_ZN6Utopia22PACProxyFactoryPrivate23doRequestNewCredentialsE7QStringS1_
libutopia2.so:_ZN6Utopia22PACProxyFactoryPrivate8usingPACEv
libutopia2.so:_ZN6Utopia22PACProxyFactoryPrivateC1EPNS_15PACProxyFactoryE
libutopia2.so:_ZN6Utopia22PACProxyFactoryPrivateC2EPNS_15PACProxyFactoryE
libutopia2.so:_ZN6Utopia22PACProxyFactoryPrivateD0Ev
libutopia2.so:_ZN6Utopia22PACProxyFactoryPrivateD1Ev
libutopia2.so:_ZN6Utopia22PACProxyFactoryPrivateD2Ev
libutopia2.so:_ZN6Utopia22generateSecurityBlocksEv
libutopia2.so:_ZN6Utopia26LocalSocketBusAgentPrivate11qt_metacallEN11QMetaObject4CallEiPPv
libutopia2.so:_ZN6Utopia26LocalSocketBusAgentPrivate11qt_metacastEPKc
libutopia2.so:_ZN6Utopia26LocalSocketBusAgentPrivate13newConnectionEv
libutopia2.so:_ZN6Utopia26LocalSocketBusAgentPrivate9readyReadEv
libutopia2.so:_ZN6Utopia26LocalSocketBusAgentPrivateC1EPNS_19LocalSocketBusAgentE7QStringS3_
libutopia2.so:_ZN6Utopia26LocalSocketBusAgentPrivateC2EPNS_19LocalSocketBusAgentE7QStringS3_
libutopia2.so:_ZN6Utopia26LocalSocketBusAgentPrivateD0Ev
libutopia2.so:_ZN6Utopia26LocalSocketBusAgentPrivateD1Ev
libutopia2.so:_ZN6Utopia26LocalSocketBusAgentPrivateD2Ev
libutopia2.so:_ZN6Utopia27NetworkAccessManagerPrivate11qt_metacallEN11QMetaObject4CallEiPPv
libutopia2.so:_ZN6Utopia27NetworkAccessManagerPrivate11qt_metacastEPKc
libutopia2.so:_ZN6Utopia27NetworkAccessManagerPrivate13getForBlockerERK15QNetworkRequestPNS_19NetworkReplyBlockerE
libutopia2.so:_ZN6Utopia27NetworkAccessManagerPrivateC1EPNS_20NetworkAccessManagerE
libutopia2.so:_ZN6Utopia27NetworkAccessManagerPrivateC2EPNS_20NetworkAccessManagerE
libutopia2.so:_ZN6Utopia29CertificateErrorDialogPrivate11qt_metacallEN11QMetaObject4CallEiPPv
libutopia2.so:_ZN6Utopia29CertificateErrorDialogPrivate11qt_metacastEPKc
libutopia2.so:_ZN6Utopia29CertificateErrorDialogPrivate20onAllowButtonClickedEv
libutopia2.so:_ZN6Utopia29CertificateErrorDialogPrivate34onCertificateListCurrentRowChangedEi
libutopia2.so:_ZN6Utopia29CertificateErrorDialogPrivateC1ERK7QStringRK5QListI9QSslErrorEPNS_22CertificateErrorDialogE
libutopia2.so:_ZN6Utopia29CertificateErrorDialogPrivateC2ERK7QStringRK5QListI9QSslErrorEPNS_22CertificateErrorDialogE
libutopia2.so:_ZN6Utopia2ORC1EPNS_9criterionES2_
libutopia2.so:_ZN6Utopia2ORC2EPNS_9criterionES2_
libutopia2.so:_ZN6Utopia2ORD0Ev
libutopia2.so:_ZN6Utopia2ORD1Ev
libutopia2.so:_ZN6Utopia2ORD2Ev
libutopia2.so:_ZN6Utopia2ORclEPNS_4NodeE
libutopia2.so:_ZN6Utopia3ANDC1EPNS_9criterionES2_
libutopia2.so:_ZN6Utopia3ANDC2EPNS_9criterionES2_
libutopia2.so:_ZN6Utopia3ANDD0Ev
libutopia2.so:_ZN6Utopia3ANDD1Ev
libutopia2.so:_ZN6Utopia3ANDD2Ev
libutopia2.so:_ZN6Utopia3ANDclEPNS_4NodeE
libutopia2.so:_ZN6Utopia3Bus11qt_metacallEN11QMetaObject4CallEiPPv
libutopia2.so:_ZN6Utopia3Bus11qt_metacastEPKc
libutopia2.so:_ZN6Utopia3Bus11subscribeToEPNS_8BusAgentERK7QString
libutopia2.so:_ZN6Utopia3Bus11unsubscribeEPNS_8BusAgentE
libutopia2.so:_ZN6Utopia3Bus15unsubscribeFromEPNS_8BusAgentERK7QString
libutopia2.so:_ZN6Utopia3Bus18unsubscribeFromAllEPNS_8BusAgentE
libutopia2.so:_ZN6Utopia3Bus22createLocalServerAgentE7QStringS1_
libutopia2.so:_ZN6Utopia3Bus23createChildProcessAgentERK7QStringRK11QStringListS1_
libutopia2.so:_ZN6Utopia3Bus29createChildPythonProcessAgentERK7QStringRK11QStringListS1_
libutopia2.so:_ZN6Utopia3Bus4sendEPNS_8BusAgentERK8QVariant
libutopia2.so:_ZN6Utopia3Bus6sendToEPNS_8BusAgentERK7QStringRK8QVariant
libutopia2.so:_ZN6Utopia3Bus9subscribeEPNS_8BusAgentE
libutopia2.so:_ZN6Utopia3BusC1EP7QObject
libutopia2.so:_ZN6Utopia3BusC2EP7QObject
libutopia2.so:_ZN6Utopia4List10push_frontEPNS_4NodeE
libutopia2.so:_ZN6Utopia4List14const_iteratorC1EPNS_8ListNodeES3_
libutopia2.so:_ZN6Utopia4List14const_iteratorC2EPNS_8ListNodeES3_
libutopia2.so:_ZN6Utopia4List14const_iteratoraSERKNS0_8iteratorE
libutopia2.so:_ZN6Utopia4List14const_iteratormmEi
libutopia2.so:_ZN6Utopia4List14const_iteratormmEv
libutopia2.so:_ZN6Utopia4List14const_iteratorppEi
libutopia2.so:_ZN6Utopia4List14const_iteratorppEv
libutopia2.so:_ZN6Utopia4List3endEv
libutopia2.so:_ZN6Utopia4List4_newEPNS_4NodeE
libutopia2.so:_ZN6Utopia4List4backEv
libutopia2.so:_ZN6Utopia4List4findEPNS_4NodeE
libutopia2.so:_ZN6Utopia4List4rendEv
libutopia2.so:_ZN6Utopia4List5beginEv
libutopia2.so:_ZN6Utopia4List5clearEv
libutopia2.so:_ZN6Utopia4List5eraseENS0_8iteratorE
libutopia2.so:_ZN6Utopia4List5eraseENS0_8iteratorES1_
libutopia2.so:_ZN6Utopia4List5frontEv
libutopia2.so:_ZN6Utopia4List5rfindEPNS_4NodeE
libutopia2.so:_ZN6Utopia4List6insertENS0_8iteratorEPNS_4NodeE
libutopia2.so:_ZN6Utopia4List6rbeginEv
libutopia2.so:_ZN6Utopia4List6removeEPNS_4NodeE
libutopia2.so:_ZN6Utopia4List7_resizeEv
libutopia2.so:_ZN6Utopia4List8iteratorC1EPNS_8ListNodeES3_
libutopia2.so:_ZN6Utopia4List8iteratorC1ERKS1_
libutopia2.so:_ZN6Utopia4List8iteratorC2EPNS_8ListNodeES3_
libutopia2.so:_ZN6Utopia4List8iteratorC2ERKS1_
libutopia2.so:_ZN6Utopia4List8iteratoraSERKS1_
libutopia2.so:_ZN6Utopia4List8iteratormmEi
libutopia2.so:_ZN6Utopia4List8iteratormmEv
libutopia2.so:_ZN6Utopia4List8iteratorppEi
libutopia2.so:_ZN6Utopia4List8iteratorppEv
libutopia2.so:_ZN6Utopia4List8pop_backEv
libutopia2.so:_ZN6Utopia4List9pop_frontEv
libutopia2.so:_ZN6Utopia4List9push_backEPNS_4NodeE
libutopia2.so:_ZN6Utopia4ListC1Em
libutopia2.so:_ZN6Utopia4ListC1Ev
libutopia2.so:_ZN6Utopia4ListC2Em
libutopia2.so:_ZN6Utopia4ListC2Ev
libutopia2.so:_ZN6Utopia4ListD1Ev
libutopia2.so:_ZN6Utopia4ListD2Ev
libutopia2.so:_ZN6Utopia4Node10_addMinionEPS0_
libutopia2.so:_ZN6Utopia4Node11attribution5clearEv
libutopia2.so:_ZN6Utopia4Node11attribution6addUriEPS0_
libutopia2.so:_ZN6Utopia4Node11attribution6removeEPS0_
libutopia2.so:_ZN6Utopia4Node11attribution6removeERK7QString
libutopia2.so:_ZN6Utopia4Node11attribution7fromURIE7QString
libutopia2.so:_ZN6Utopia4Node11attribution9removeUriEPS0_
libutopia2.so:_ZN6Utopia4Node11attributionC1ERS0_
libutopia2.so:_ZN6Utopia4Node11attributionC2ERS0_
libutopia2.so:_ZN6Utopia4Node11attributionD1Ev
libutopia2.so:_ZN6Utopia4Node11attributionD2Ev
libutopia2.so:_ZN6Utopia4Node12_addInstanceEPS0_
libutopia2.so:_ZN6Utopia4Node12getAuthorityE7QStringb
libutopia2.so:_ZN6Utopia4Node12setAuthorityEPS0_
libutopia2.so:_ZN6Utopia4Node13_removeMinionEPS0_
libutopia2.so:_ZN6Utopia4Node15_removeInstanceEPS0_
libutopia2.so:_ZN6Utopia4Node6createE7QString
libutopia2.so:_ZN6Utopia4Node6createEPS0_
libutopia2.so:_ZN6Utopia4Node7getNodeE7QString
libutopia2.so:_ZN6Utopia4Node7setTypeEPS0_
libutopia2.so:_ZN6Utopia4Node8Registry11authoritiesEv
libutopia2.so:_ZN6Utopia4Node8Registry3getEv
libutopia2.so:_ZN6Utopia4Node8Registry4initEv
libutopia2.so:_ZN6Utopia4Node8Registry4urisEv
libutopia2.so:_ZN6Utopia4Node8Registry6addUriEPS0_
libutopia2.so:_ZN6Utopia4Node8Registry9removeUriEPS0_
libutopia2.so:_ZN6Utopia4Node8RegistryC1Ev
libutopia2.so:_ZN6Utopia4Node8RegistryC2Ev
libutopia2.so:_ZN6Utopia4Node8RegistryD1Ev
libutopia2.so:_ZN6Utopia4Node8RegistryD2Ev
libutopia2.so:_ZN6Utopia4Node8relation20_getDirectAccessListERKNS_8PropertyEb
libutopia2.so:_ZN6Utopia4Node8relationC1ERS0_
libutopia2.so:_ZN6Utopia4Node8relationC2ERS0_
libutopia2.so:_ZN6Utopia4Node8relationD1Ev
libutopia2.so:_ZN6Utopia4Node8relationD2Ev
libutopia2.so:_ZN6Utopia4Node8relationclERKNS_8PropertyE
libutopia2.so:_ZN6Utopia4Node8relationclEv
libutopia2.so:_ZN6Utopia4NodeC1Eb
libutopia2.so:_ZN6Utopia4NodeC2Eb
libutopia2.so:_ZN6Utopia4NodeD1Ev
libutopia2.so:_ZN6Utopia4NodeD2Ev
libutopia2.so:_ZN6Utopia4initEP7QObject
libutopia2.so:_ZN6Utopia4loadERK7QStringPNS_10FileFormatE
libutopia2.so:_ZN6Utopia4saveERK7QStringPNS_4NodeEPNS_10FileFormatE
libutopia2.so:_ZN6Utopia5Mutex11errorStringEv
libutopia2.so:_ZN6Utopia5Mutex4lockEv
libutopia2.so:_ZN6Utopia5Mutex6_depthEv
libutopia2.so:_ZN6Utopia5Mutex6unlockEv
libutopia2.so:_ZN6Utopia5Mutex7tryLockEv
libutopia2.so:_ZN6Utopia5Mutex9errorCodeEv
libutopia2.so:_ZN6Utopia5MutexC1Ev
libutopia2.so:_ZN6Utopia5MutexC2Ev
libutopia2.so:_ZN6Utopia5MutexD1Ev
libutopia2.so:_ZN6Utopia5MutexD2Ev
libutopia2.so:_ZN6Utopia5parseER9QIODevicePNS_10FileFormatE
libutopia2.so:_ZN6Utopia6Parser14registerFormatEPNS_10FileFormatEPS0_
libutopia2.so:_ZN6Utopia6Parser3allEv
libutopia2.so:_ZN6Utopia6Parser3getEPNS_10FileFormatE
libutopia2.so:_ZN6Utopia6Parser3getERK7QString
libutopia2.so:_ZN6Utopia6Parser7Context10addWarningERK7QStringmm
libutopia2.so:_ZN6Utopia6Parser7Context10setMessageERK7QString
libutopia2.so:_ZN6Utopia6Parser7Context12setErrorCodeENS0_9ErrorCodeE
libutopia2.so:_ZN6Utopia6Parser7Context12setErrorLineEm
libutopia2.so:_ZN6Utopia6Parser7Context17setErrorCharacterEm
libutopia2.so:_ZN6Utopia6Parser7Context8setModelEPNS_4NodeE
libutopia2.so:_ZN6Utopia6Parser7ContextC1EPKS0_
libutopia2.so:_ZN6Utopia6Parser7ContextC2EPKS0_
libutopia2.so:_ZN6Utopia6Plugin10setEnabledEb
libutopia2.so:_ZN6Utopia6Plugin11qt_metacallEN11QMetaObject4CallEiPPv
libutopia2.so:_ZN6Utopia6Plugin11qt_metacastEPKc
libutopia2.so:_ZN6Utopia6Plugin14enabledChangedEb
libutopia2.so:_ZN6Utopia6Plugin6removeEv
libutopia2.so:_ZN6Utopia6Plugin7removedEv
libutopia2.so:_ZN6Utopia6PluginC1ERK5QUuidP7QObject
libutopia2.so:_ZN6Utopia6PluginC1ERK9QFileInfoP7QObject
libutopia2.so:_ZN6Utopia6PluginC2ERK5QUuidP7QObject
libutopia2.so:_ZN6Utopia6PluginC2ERK9QFileInfoP7QObject
libutopia2.so:_ZN6Utopia6hashOfEPNS_4NodeE
libutopia2.so:_ZN6Utopia7Element3getE7QStringb
libutopia2.so:_ZN6Utopia7Library13loadDirectoryERK4QDirb
libutopia2.so:_ZN6Utopia7Library4loadERK7QString
libutopia2.so:_ZN6Utopia7Library9lastErrorEv
libutopia2.so:_ZN6Utopia7LibraryC1ERK7QStringPv
libutopia2.so:_ZN6Utopia7LibraryC2ERK7QStringPv
libutopia2.so:_ZN6Utopia7LibraryD1Ev
libutopia2.so:_ZN6Utopia7LibraryD2Ev
libutopia2.so:_ZN6Utopia7decryptERK10QByteArrayRK7QString
libutopia2.so:_ZN6Utopia7decryptERK7QStringS2_
libutopia2.so:_ZN6Utopia7encryptERK10QByteArrayRK7QString
libutopia2.so:_ZN6Utopia7encryptERK7QStringS2_
libutopia2.so:_ZN6Utopia8BusAgent14receiveFromBusERK7QStringRK8QVariant
libutopia2.so:_ZN6Utopia8BusAgent14subscribeToBusERK7QString
libutopia2.so:_ZN6Utopia8BusAgent14subscribeToBusEv
libutopia2.so:_ZN6Utopia8BusAgent15subscribeToSelfEv
libutopia2.so:_ZN6Utopia8BusAgent16resubscribeToBusEv
libutopia2.so:_ZN6Utopia8BusAgent18unsubscribeFromBusERK7QString
libutopia2.so:_ZN6Utopia8BusAgent18unsubscribeFromBusEv
libutopia2.so:_ZN6Utopia8BusAgent19unsubscribeFromSelfEv
libutopia2.so:_ZN6Utopia8BusAgent6setBusEPNS_3BusE
libutopia2.so:_ZN6Utopia8BusAgent9postToBusERK7QStringRK8QVariant
libutopia2.so:_ZN6Utopia8BusAgent9postToBusERK8QVariant
libutopia2.so:_ZN6Utopia8BusAgentC1Ev
libutopia2.so:_ZN6Utopia8BusAgentC2Ev
libutopia2.so:_ZN6Utopia8BusAgentD0Ev
libutopia2.so:_ZN6Utopia8BusAgentD1Ev
libutopia2.so:_ZN6Utopia8BusAgentD2Ev
libutopia2.so:_ZN6Utopia8ListNodeC1Ev
libutopia2.so:_ZN6Utopia8ListNodeC2Ev
libutopia2.so:_ZN6Utopia8Ontology11termFromURIERK7QString
libutopia2.so:_ZN6Utopia8Ontology7fromURIERK7QStringb
libutopia2.so:_ZN6Utopia8OntologyC1E7QString
libutopia2.so:_ZN6Utopia8OntologyC1EPNS_4NodeE
libutopia2.so:_ZN6Utopia8OntologyC2E7QString
libutopia2.so:_ZN6Utopia8OntologyC2EPNS_4NodeE
libutopia2.so:_ZN6Utopia8OntologyaSE7QString
libutopia2.so:_ZN6Utopia8OntologycvPNS_4NodeEEv
libutopia2.so:_ZN6Utopia8OntologycvbEv
libutopia2.so:_ZN6Utopia8OntologyptEv
libutopia2.so:_ZN6Utopia8Property4dataEv
libutopia2.so:_ZN6Utopia8PropertyC1EPNS_4NodeENS_17PropertyDirectionE
libutopia2.so:_ZN6Utopia8PropertyC1ERKS0_
libutopia2.so:_ZN6Utopia8PropertyC1Ev
libutopia2.so:_ZN6Utopia8PropertyC2EPNS_4NodeENS_17PropertyDirectionE
libutopia2.so:_ZN6Utopia8PropertyC2ERKS0_
libutopia2.so:_ZN6Utopia8PropertyC2Ev
libutopia2.so:_ZN6Utopia8PropertyaSEPNS_4NodeE
libutopia2.so:_ZN6Utopia8PropertyaSERKS0_
libutopia2.so:_ZN6Utopia8PropertycvPNS_4NodeEEv
libutopia2.so:_ZN6Utopia8PropertycvbEv
libutopia2.so:_ZN6Utopia8PropertydeEv
libutopia2.so:_ZN6Utopia8PropertyptEv
libutopia2.so:_ZN6Utopia8defaultsEv
libutopia2.so:_ZN6Utopia9AminoAcid3getE7QStringb
libutopia2.so:_ZN6Utopia9Condition11errorStringEv
libutopia2.so:_ZN6Utopia9Condition4waitEv
libutopia2.so:_ZN6Utopia9Condition6signalEv
libutopia2.so:_ZN6Utopia9Condition9broadcastEv
libutopia2.so:_ZN6Utopia9Condition9errorCodeEv
libutopia2.so:_ZN6Utopia9ConditionC1Ev
libutopia2.so:_ZN6Utopia9ConditionC2Ev
libutopia2.so:_ZN6Utopia9ConditionD1Ev
libutopia2.so:_ZN6Utopia9ConditionD2Ev
libutopia2.so:_ZN6Utopia9PACScript11qt_metacallEN11QMetaObject4CallEiPPv
libutopia2.so:_ZN6Utopia9PACScript11qt_metacastEPKc
libutopia2.so:_ZN6Utopia9PACScript15findProxyForUrlERK7QStringS3_
libutopia2.so:_ZN6Utopia9PACScript9setScriptERK7QString
libutopia2.so:_ZN6Utopia9PACScriptC1Ev
libutopia2.so:_ZN6Utopia9PACScriptC2Ev
libutopia2.so:_ZN6Utopia9PACScriptD0Ev
libutopia2.so:_ZN6Utopia9PACScriptD1Ev
libutopia2.so:_ZN6Utopia9PACScriptD2Ev
libutopia2.so:_ZN6Utopia9Semaphore11errorStringEv
libutopia2.so:_ZN6Utopia9Semaphore4lockEv
libutopia2.so:_ZN6Utopia9Semaphore6unlockEv
libutopia2.so:_ZN6Utopia9Semaphore9errorCodeEv
libutopia2.so:_ZN6Utopia9SemaphoreC1Ej
libutopia2.so:_ZN6Utopia9SemaphoreC2Ej
libutopia2.so:_ZN6Utopia9SemaphoreD1Ev
libutopia2.so:_ZN6Utopia9SemaphoreD2Ev
libutopia2.so:_ZN6Utopia9serializeER9QIODevicePNS_4NodeEPNS_10FileFormatE
libutopia2.so:_ZNK6Utopia10BusPrivate10metaObjectEv
libutopia2.so:_ZNK6Utopia10FileFormat16formatCategoriesEv
libutopia2.so:_ZNK6Utopia10FileFormat4nameEv
libutopia2.so:_ZNK6Utopia10FileFormat5masksERK7QString
libutopia2.so:_ZNK6Utopia10Serializer14formatCategoryEv
libutopia2.so:_ZNK6Utopia10Serializer7Context10serializerEv
libutopia2.so:_ZNK6Utopia10Serializer7Context7messageEv
libutopia2.so:_ZNK6Utopia10Serializer7Context9errorCodeEv
libutopia2.so:_ZNK6Utopia10Serializer7formatsEv
libutopia2.so:_ZNK6Utopia10Serializer9serializeER9QIODevicePNS_4NodeE
libutopia2.so:_ZNK6Utopia11Initializer10metaObjectEv
libutopia2.so:_ZNK6Utopia11Initializer7messageEv
libutopia2.so:_ZNK6Utopia11Initializer9errorCodeEv
libutopia2.so:_ZNK6Utopia11VariantBase14representationEv
libutopia2.so:_ZNK6Utopia11VariantBase4typeEv
libutopia2.so:_ZNK6Utopia12Configurable13configurationEv
libutopia2.so:_ZNK6Utopia12SplashHelper10metaObjectEv
libutopia2.so:_ZNK6Utopia13Configuration10metaObjectEv
libutopia2.so:_ZNK6Utopia13Configuration2idEv
libutopia2.so:_ZNK6Utopia13Configuration3getERK7QStringRK8QVariant
libutopia2.so:_ZNK6Utopia13Configuration4keysEv
libutopia2.so:_ZNK6Utopia13Configuration5titleEv
libutopia2.so:_ZNK6Utopia13Configuration7isValidEv
libutopia2.so:_ZNK6Utopia13Configuration8containsERK7QString
libutopia2.so:_ZNK6Utopia13PluginManager10metaObjectEv
libutopia2.so:_ZNK6Utopia13PluginManager5pathsEv
libutopia2.so:_ZNK6Utopia13PluginManager7pluginsEv
libutopia2.so:_ZNK6Utopia13PluginPrivate10metaObjectEv
libutopia2.so:_ZNK6Utopia13PluginPrivate11getFilePathEv
libutopia2.so:_ZNK6Utopia13PluginPrivate9isEnabledEv
libutopia2.so:_ZNK6Utopia13_PropertyList14const_iteratordeEv
libutopia2.so:_ZNK6Utopia13_PropertyList3endEv
libutopia2.so:_ZNK6Utopia13_PropertyList4backEv
libutopia2.so:_ZNK6Utopia13_PropertyList4findEPNS_4NodeE
libutopia2.so:_ZNK6Utopia13_PropertyList4rendEv
libutopia2.so:_ZNK6Utopia13_PropertyList4sizeEv
libutopia2.so:_ZNK6Utopia13_PropertyList5beginEv
libutopia2.so:_ZNK6Utopia13_PropertyList5emptyEv
libutopia2.so:_ZNK6Utopia13_PropertyList5frontEv
libutopia2.so:_ZNK6Utopia13_PropertyList6existsEPNS_4NodeE
libutopia2.so:_ZNK6Utopia13_PropertyList6rbeginEv
libutopia2.so:_ZNK6Utopia13_PropertyList8iteratordeEv
libutopia2.so:_ZNK6Utopia13_PropertyList8iteratoreqERKS1_
libutopia2.so:_ZNK6Utopia13_PropertyList8iteratorneERKS1_
libutopia2.so:_ZNK6Utopia15PACProxyFactory10metaObjectEv
libutopia2.so:_ZNK6Utopia15PACProxyFactory6scriptEv
libutopia2.so:_ZNK6Utopia16ExtensionLibrary11descriptionEv
libutopia2.so:_ZNK6Utopia16ExtensionLibrary8filenameEv
libutopia2.so:_ZNK6Utopia19LocalSocketBusAgent10metaObjectEv
libutopia2.so:_ZNK6Utopia19LocalSocketBusAgent5busIdEv
libutopia2.so:_ZNK6Utopia19NetworkReplyBlocker10metaObjectEv
libutopia2.so:_ZNK6Utopia19NetworkReplyBlocker5replyEv
libutopia2.so:_ZNK6Utopia20NetworkAccessManager10metaObjectEv
libutopia2.so:_ZNK6Utopia20NetworkAccessManager15userAgentStringEv
libutopia2.so:_ZNK6Utopia20PluginManagerPrivate10metaObjectEv
libutopia2.so:_ZNK6Utopia22CertificateErrorDialog10metaObjectEv
libutopia2.so:_ZNK6Utopia22CertificateErrorDialog11allowPolicyEv
libutopia2.so:_ZNK6Utopia22PACProxyFactoryPrivate10metaObjectEv
libutopia2.so:_ZNK6Utopia25NetworkAccessManagerMixin20networkAccessManagerEv
libutopia2.so:_ZNK6Utopia26LocalSocketBusAgentPrivate10metaObjectEv
libutopia2.so:_ZNK6Utopia27NetworkAccessManagerPrivate10metaObjectEv
libutopia2.so:_ZNK6Utopia29CertificateErrorDialogPrivate10metaObjectEv
libutopia2.so:_ZNK6Utopia3Bus10metaObjectEv
libutopia2.so:_ZNK6Utopia4List14const_iteratordeEv
libutopia2.so:_ZNK6Utopia4List3endEv
libutopia2.so:_ZNK6Utopia4List4backEv
libutopia2.so:_ZNK6Utopia4List4findEPNS_4NodeE
libutopia2.so:_ZNK6Utopia4List4rendEv
libutopia2.so:_ZNK6Utopia4List4sizeEv
libutopia2.so:_ZNK6Utopia4List5beginEv
libutopia2.so:_ZNK6Utopia4List5emptyEv
libutopia2.so:_ZNK6Utopia4List5frontEv
libutopia2.so:_ZNK6Utopia4List5rfindEPNS_4NodeE
libutopia2.so:_ZNK6Utopia4List6existsEPNS_4NodeE
libutopia2.so:_ZNK6Utopia4List6rbeginEv
libutopia2.so:_ZNK6Utopia4List8_resolveEPNS_4NodeE
libutopia2.so:_ZNK6Utopia4List8iteratordeEv
libutopia2.so:_ZNK6Utopia4List8iteratoreqERKS1_
libutopia2.so:_ZNK6Utopia4List8iteratorneERKS1_
libutopia2.so:_ZNK6Utopia4Node11attribution4keysEv
libutopia2.so:_ZNK6Utopia4Node11attribution5countEv
libutopia2.so:_ZNK6Utopia4Node11attribution6existsEPS0_
libutopia2.so:_ZNK6Utopia4Node11attribution6existsERK7QString
libutopia2.so:_ZNK6Utopia4Node11attribution6typeOfEPS0_
libutopia2.so:_ZNK6Utopia4Node11attribution6typeOfERK7QString
libutopia2.so:_ZNK6Utopia4Node4typeEv
libutopia2.so:_ZNK6Utopia4Node7minionsEv
libutopia2.so:_ZNK6Utopia4Node8relation5emptyEv
libutopia2.so:_ZNK6Utopia4Node8relationclERKNS_8PropertyE
libutopia2.so:_ZNK6Utopia4Node9authorityEv
libutopia2.so:_ZNK6Utopia4Node9instancesEv
libutopia2.so:_ZNK6Utopia6Parser5parseER9QIODevice
libutopia2.so:_ZNK6Utopia6Parser7Context14errorCharacterEv
libutopia2.so:_ZNK6Utopia6Parser7Context5modelEv
libutopia2.so:_ZNK6Utopia6Parser7Context6parserEv
libutopia2.so:_ZNK6Utopia6Parser7Context7messageEv
libutopia2.so:_ZNK6Utopia6Parser7Context8warningsEv
libutopia2.so:_ZNK6Utopia6Parser7Context9errorCodeEv
libutopia2.so:_ZNK6Utopia6Parser7Context9errorLineEv
libutopia2.so:_ZNK6Utopia6Parser7acceptsER9QIODevice
libutopia2.so:_ZNK6Utopia6Parser7formatsEv
libutopia2.so:_ZNK6Utopia6Plugin10metaObjectEv
libutopia2.so:_ZNK6Utopia6Plugin4pathEv
libutopia2.so:_ZNK6Utopia6Plugin4uuidEv
libutopia2.so:_ZNK6Utopia6Plugin8fileInfoEv
libutopia2.so:_ZNK6Utopia6Plugin9isEnabledEv
libutopia2.so:_ZNK6Utopia6Plugin9isRemovedEv
libutopia2.so:_ZNK6Utopia7Library6symbolERK7QString
libutopia2.so:_ZNK6Utopia7Library8filenameEv
libutopia2.so:_ZNK6Utopia8BusAgent3busEv
libutopia2.so:_ZNK6Utopia8BusAgent5busIdEv
libutopia2.so:_ZNK6Utopia8ListNode4hashEv
libutopia2.so:_ZNK6Utopia8Ontology3uriEv
libutopia2.so:_ZNK6Utopia8Ontology4termERK7QString
libutopia2.so:_ZNK6Utopia8Ontology5hasIdERK7QString
libutopia2.so:_ZNK6Utopia8Ontology7hasNodeEPNS_4NodeE
libutopia2.so:_ZNK6Utopia8Ontology9authorityEv
libutopia2.so:_ZNK6Utopia8OntologycvPKNS_4NodeEEv
libutopia2.so:_ZNK6Utopia8OntologyptEv
libutopia2.so:_ZNK6Utopia8Property3dirEv
libutopia2.so:_ZNK6Utopia8Property4dataEv
libutopia2.so:_ZNK6Utopia8Property4hashEv
libutopia2.so:_ZNK6Utopia8PropertycoEv
libutopia2.so:_ZNK6Utopia8PropertycvPKNS_4NodeEEv
libutopia2.so:_ZNK6Utopia8PropertydeEv
libutopia2.so:_ZNK6Utopia8PropertyeqERKS0_
libutopia2.so:_ZNK6Utopia8PropertyltERKS0_
libutopia2.so:_ZNK6Utopia8PropertyneERKS0_
libutopia2.so:_ZNK6Utopia8PropertyntEv
libutopia2.so:_ZNK6Utopia8PropertyptEv
libutopia2.so:_ZNK6Utopia9PACScript10metaObjectEv
libutopia2.so:_ZNK6Utopia9PACScript6scriptEv
libutopia2.so:_ZNK6Utopia9PACScript7isValidEv
libutopia2.so:_ZThn16_N6Utopia15PACProxyFactory10queryProxyERK18QNetworkProxyQuery
libutopia2.so:_ZThn16_N6Utopia15PACProxyFactoryD0Ev
libutopia2.so:_ZThn16_N6Utopia15PACProxyFactoryD1Ev
libutopia2.so:_ZThn16_N6Utopia19LocalSocketBusAgent14receiveFromBusERK7QStringRK8QVariant
libutopia2.so:_ZThn16_N6Utopia19LocalSocketBusAgent16resubscribeToBusEv
libutopia2.so:_ZThn16_N6Utopia19LocalSocketBusAgentD0Ev
libutopia2.so:_ZThn16_N6Utopia19LocalSocketBusAgentD1Ev
libutopia2.so:_ZThn16_NK6Utopia19LocalSocketBusAgent5busIdEv
libutopia2.so:_ZltRK15QSslCertificateS1_
libutopia2_auth.so:_ZN4Kend11UserPrivate10onFinishedEv
libutopia2_auth.so:_ZN4Kend11UserPrivate11fetchAvatarEv
libutopia2_auth.so:_ZN4Kend11UserPrivate11infoChangedEv
libutopia2_auth.so:_ZN4Kend11UserPrivate11qt_metacallEN11QMetaObject4CallEiPPv
libutopia2_auth.so:_ZN4Kend11UserPrivate11qt_metacastEPKc
libutopia2_auth.so:_ZN4Kend11UserPrivate11removeValueERK7QString
libutopia2_auth.so:_ZN4Kend11UserPrivate11resetAvatarEv
libutopia2_auth.so:_ZN4Kend11UserPrivate12commitFailedEv
libutopia2_auth.so:_ZN4Kend11UserPrivate13avatarChangedEv
libutopia2_auth.so:_ZN4Kend11UserPrivate14setDisplayNameE7QString
libutopia2_auth.so:_ZN4Kend11UserPrivate15commitCompletedEb
libutopia2_auth.so:_ZN4Kend11UserPrivate15commitSucceededEv
libutopia2_auth.so:_ZN4Kend11UserPrivate18displayNameChangedERK7QString
libutopia2_auth.so:_ZN4Kend11UserPrivate18infoOverlayChangedEv
libutopia2_auth.so:_ZN4Kend11UserPrivate20avatarOverlayChangedEv
libutopia2_auth.so:_ZN4Kend11UserPrivate5setupEv
libutopia2_auth.so:_ZN4Kend11UserPrivate6createEPNS_7ServiceERK7QString
libutopia2_auth.so:_ZN4Kend11UserPrivate7putInfoEb
libutopia2_auth.so:_ZN4Kend11UserPrivate7setInfoERK4QMapI7QStringS2_E
libutopia2_auth.so:_ZN4Kend11UserPrivate8setValueERK7QStringS3_
libutopia2_auth.so:_ZN4Kend11UserPrivate9fetchInfoEv
libutopia2_auth.so:_ZN4Kend11UserPrivate9resetInfoEv
libutopia2_auth.so:_ZN4Kend11UserPrivate9setAvatarERK7QPixmap
libutopia2_auth.so:_ZN4Kend11UserPrivateC1EPNS_7ServiceERK7QString
libutopia2_auth.so:_ZN4Kend11UserPrivateC2EPNS_7ServiceERK7QString
libutopia2_auth.so:_ZN4Kend14ServiceManager10addServiceEPNS_7ServiceE
libutopia2_auth.so:_ZN4Kend14ServiceManager10addServiceERK4QUrl
libutopia2_auth.so:_ZN4Kend14ServiceManager11qt_metacallEN11QMetaObject4CallEiPPv
libutopia2_auth.so:_ZN4Kend14ServiceManager11qt_metacastEPKc
libutopia2_auth.so:_ZN4Kend14ServiceManager12serviceAddedEPNS_7ServiceE
libutopia2_auth.so:_ZN4Kend14ServiceManager12serviceErrorEPNS_7ServiceE
libutopia2_auth.so:_ZN4Kend14ServiceManager13removeServiceEPNS_7ServiceE
libutopia2_auth.so:_ZN4Kend14ServiceManager14saveToSettingsEv
libutopia2_auth.so:_ZN4Kend14ServiceManager14serviceRemovedEPNS_7ServiceE
libutopia2_auth.so:_ZN4Kend14ServiceManager14serviceStartedEPNS_7ServiceE
libutopia2_auth.so:_ZN4Kend14ServiceManager14serviceStoppedEPNS_7ServiceE
libutopia2_auth.so:_ZN4Kend14ServiceManager16loadFromSettingsEv
libutopia2_auth.so:_ZN4Kend14ServiceManager16serviceLoggingInEPNS_7ServiceE
libutopia2_auth.so:_ZN4Kend14ServiceManager17serviceLoggingOutEPNS_7ServiceE
libutopia2_auth.so:_ZN4Kend14ServiceManager17servicePopulatingEPNS_7ServiceE
libutopia2_auth.so:_ZN4Kend14ServiceManager19serviceStateChangedEPNS_7ServiceENS1_12ServiceStateE
libutopia2_auth.so:_ZN4Kend14ServiceManager4stopEPNS_7ServiceE
libutopia2_auth.so:_ZN4Kend14ServiceManager5startEPNS_7ServiceE
libutopia2_auth.so:_ZN4Kend14ServiceManager8instanceEv
libutopia2_auth.so:_ZN4Kend14ServiceManagerC1EP7QObject
libutopia2_auth.so:_ZN4Kend14ServiceManagerC2EP7QObject
libutopia2_auth.so:_ZN4Kend14ServiceManagerD0Ev
libutopia2_auth.so:_ZN4Kend14ServiceManagerD1Ev
libutopia2_auth.so:_ZN4Kend14ServiceManagerD2Ev
libutopia2_auth.so:_ZN4Kend14ServicePrivate10clearCacheEv
libutopia2_auth.so:_ZN4Kend14ServicePrivate11changeStateENS_7Service12ServiceStateE
libutopia2_auth.so:_ZN4Kend14ServicePrivate11qt_metacallEN11QMetaObject4CallEiPPv
libutopia2_auth.so:_ZN4Kend14ServicePrivate11qt_metacastEPKc
libutopia2_auth.so:_ZN4Kend14ServicePrivate11saveToCacheEv
libutopia2_auth.so:_ZN4Kend14ServicePrivate12serviceErrorEv
libutopia2_auth.so:_ZN4Kend14ServicePrivate13logInCompleteE7QStringS1_
libutopia2_auth.so:_ZN4Kend14ServicePrivate13replyFinishedEv
libutopia2_auth.so:_ZN4Kend14ServicePrivate14serviceStartedEv
libutopia2_auth.so:_ZN4Kend14ServicePrivate14serviceStoppedEv
libutopia2_auth.so:_ZN4Kend14ServicePrivate14setServiceNameERK7QString
libutopia2_auth.so:_ZN4Kend14ServicePrivate15onLogInCompleteE7QStringS1_
libutopia2_auth.so:_ZN4Kend14ServicePrivate15populateFromUrlEb
libutopia2_auth.so:_ZN4Kend14ServicePrivate16onLogOutCompleteEv
libutopia2_auth.so:_ZN4Kend14ServicePrivate16serviceLoggingInEv
libutopia2_auth.so:_ZN4Kend14ServicePrivate17populateFromCacheEv
libutopia2_auth.so:_ZN4Kend14ServicePrivate17serviceLoggingOutEv
libutopia2_auth.so:_ZN4Kend14ServicePrivate17servicePopulatingEv
libutopia2_auth.so:_ZN4Kend14ServicePrivate18serviceNameChangedE7QString
libutopia2_auth.so:_ZN4Kend14ServicePrivate19serviceStateChangedENS_7Service12ServiceStateE
libutopia2_auth.so:_ZN4Kend14ServicePrivate20authenticatedRequestERK15QNetworkRequestRK7QString
libutopia2_auth.so:_ZN4Kend14ServicePrivate3getERK15QNetworkRequest
libutopia2_auth.so:_ZN4Kend14ServicePrivate4initEv
libutopia2_auth.so:_ZN4Kend14ServicePrivate5clearEv
libutopia2_auth.so:_ZN4Kend14ServicePrivate7optionsERK15QNetworkRequest
libutopia2_auth.so:_ZN4Kend14ServicePrivate8finishedEv
libutopia2_auth.so:_ZN4Kend14ServicePrivate8setErrorENS_7Service12ServiceErrorERK7QString
libutopia2_auth.so:_ZN4Kend14ServicePrivateC1EPNS_7ServiceE
libutopia2_auth.so:_ZN4Kend14ServicePrivateC1EPNS_7ServiceERK5QUuid
libutopia2_auth.so:_ZN4Kend14ServicePrivateC2EPNS_7ServiceE
libutopia2_auth.so:_ZN4Kend14ServicePrivateC2EPNS_7ServiceERK5QUuid
libutopia2_auth.so:_ZN4Kend16AuthAgentPrivate11qt_metacallEN11QMetaObject4CallEiPPv
libutopia2_auth.so:_ZN4Kend16AuthAgentPrivate11qt_metacastEPKc
libutopia2_auth.so:_ZN4Kend16AuthAgentPrivate20registerNetworkReplyEP13QNetworkReply
libutopia2_auth.so:_ZN4Kend16AuthAgentPrivate3getERK15QNetworkRequest
libutopia2_auth.so:_ZN4Kend16AuthAgentPrivate4postERK15QNetworkRequestRK10QByteArray
libutopia2_auth.so:_ZN4Kend16AuthAgentPrivate8finishedEv
libutopia2_auth.so:_ZN4Kend16AuthAgentPrivate9sslErrorsERK5QListI9QSslErrorE
libutopia2_auth.so:_ZN4Kend16AuthAgentPrivateC1EPNS_9AuthAgentE
libutopia2_auth.so:_ZN4Kend16AuthAgentPrivateC2EPNS_9AuthAgentE
libutopia2_auth.so:_ZN4Kend16AuthAgentPrivateD0Ev
libutopia2_auth.so:_ZN4Kend16AuthAgentPrivateD1Ev
libutopia2_auth.so:_ZN4Kend16AuthAgentPrivateD2Ev
libutopia2_auth.so:_ZN4Kend19ServiceManagerModel11qt_metacallEN11QMetaObject4CallEiPPv
libutopia2_auth.so:_ZN4Kend19ServiceManagerModel11qt_metacastEPKc
libutopia2_auth.so:_ZN4Kend19ServiceManagerModel7setDataERK11QModelIndexRK8QVarianti
libutopia2_auth.so:_ZN4Kend19ServiceManagerModelC1EP7QObject
libutopia2_auth.so:_ZN4Kend19ServiceManagerModelC2EP7QObject
libutopia2_auth.so:_ZN4Kend19ServiceManagerModelD0Ev
libutopia2_auth.so:_ZN4Kend19ServiceManagerModelD1Ev
libutopia2_auth.so:_ZN4Kend19ServiceManagerModelD2Ev
libutopia2_auth.so:_ZN4Kend21ServiceManagerPrivate11qt_metacallEN11QMetaObject4CallEiPPv
libutopia2_auth.so:_ZN4Kend21ServiceManagerPrivate11qt_metacastEPKc
libutopia2_auth.so:_ZN4Kend21ServiceManagerPrivate14onServiceErrorEv
libutopia2_auth.so:_ZN4Kend21ServiceManagerPrivate16onCheckerTimeoutEv
libutopia2_auth.so:_ZN4Kend21ServiceManagerPrivate16onServiceStartedEv
libutopia2_auth.so:_ZN4Kend21ServiceManagerPrivate16onServiceStoppedEv
libutopia2_auth.so:_ZN4Kend21ServiceManagerPrivate18onServiceLoggingInEv
libutopia2_auth.so:_ZN4Kend21ServiceManagerPrivate19onServiceLoggingOutEv
libutopia2_auth.so:_ZN4Kend21ServiceManagerPrivate19onServicePopulatingEv
libutopia2_auth.so:_ZN4Kend21ServiceManagerPrivate21onServiceStateChangedENS_7Service12ServiceStateE
libutopia2_auth.so:_ZN4Kend21ServiceManagerPrivateC1EPNS_14ServiceManagerE
libutopia2_auth.so:_ZN4Kend21ServiceManagerPrivateC2EPNS_14ServiceManagerE
libutopia2_auth.so:_ZN4Kend22ServiceManagerNotifier10setFiltersE6QFlagsINS_14ServiceManager6FilterEE
libutopia2_auth.so:_ZN4Kend22ServiceManagerNotifier11qt_metacallEN11QMetaObject4CallEiPPv
libutopia2_auth.so:_ZN4Kend22ServiceManagerNotifier11qt_metacastEPKc
libutopia2_auth.so:_ZN4Kend22ServiceManagerNotifier15validityChangedEb
libutopia2_auth.so:_ZN4Kend22ServiceManagerNotifierC1E6QFlagsINS_14ServiceManager6FilterEEP7QObject
libutopia2_auth.so:_ZN4Kend22ServiceManagerNotifierC2E6QFlagsINS_14ServiceManager6FilterEEP7QObject
libutopia2_auth.so:_ZN4Kend26ServiceManagerModelPrivate11qt_metacallEN11QMetaObject4CallEiPPv
libutopia2_auth.so:_ZN4Kend26ServiceManagerModelPrivate11qt_metacastEPKc
libutopia2_auth.so:_ZN4Kend26ServiceManagerModelPrivate14connectServiceEPNS_7ServiceE
libutopia2_auth.so:_ZN4Kend26ServiceManagerModelPrivate14onServiceAddedEPNS_7ServiceE
libutopia2_auth.so:_ZN4Kend26ServiceManagerModelPrivate16onServiceRemovedEPNS_7ServiceE
libutopia2_auth.so:_ZN4Kend26ServiceManagerModelPrivate17disconnectServiceEPNS_7ServiceE
libutopia2_auth.so:_ZN4Kend26ServiceManagerModelPrivate21onServiceStateChangedENS_7Service12ServiceStateE
libutopia2_auth.so:_ZN4Kend26ServiceManagerModelPrivate22serviceStateDecorationENS_7Service12ServiceStateE
libutopia2_auth.so:_ZN4Kend26ServiceManagerModelPrivate23serviceStateDisplayNameEPNS_7ServiceE
libutopia2_auth.so:_ZN4Kend26ServiceManagerModelPrivate27onServiceCredentialsChangedE4QMapI7QString8QVariantE
libutopia2_auth.so:_ZN4Kend26ServiceManagerModelPrivate27onServiceDescriptionChangedE7QString
libutopia2_auth.so:_ZN4Kend26ServiceManagerModelPrivateC1EPNS_19ServiceManagerModelE
libutopia2_auth.so:_ZN4Kend26ServiceManagerModelPrivateC2EPNS_19ServiceManagerModelE
libutopia2_auth.so:_ZN4Kend26ServiceManagerModelPrivateD0Ev
libutopia2_auth.so:_ZN4Kend26ServiceManagerModelPrivateD1Ev
libutopia2_auth.so:_ZN4Kend26ServiceManagerModelPrivateD2Ev
libutopia2_auth.so:_ZN4Kend29ServiceManagerNotifierPrivate11qt_metacallEN11QMetaObject4CallEiPPv
libutopia2_auth.so:_ZN4Kend29ServiceManagerNotifierPrivate11qt_metacastEPKc
libutopia2_auth.so:_ZN4Kend29ServiceManagerNotifierPrivate15validityChangedEb
libutopia2_auth.so:_ZN4Kend29ServiceManagerNotifierPrivate21onServiceStateChangedEPNS_7ServiceENS1_12ServiceStateE
libutopia2_auth.so:_ZN4Kend29ServiceManagerNotifierPrivate5checkEv
libutopia2_auth.so:_ZN4Kend29ServiceManagerNotifierPrivateC1EPNS_22ServiceManagerNotifierE6QFlagsINS_14ServiceManager6FilterEE
libutopia2_auth.so:_ZN4Kend29ServiceManagerNotifierPrivateC2EPNS_22ServiceManagerNotifierE6QFlagsINS_14ServiceManager6FilterEE
libutopia2_auth.so:_ZN4Kend30ServiceManagerFilterProxyModel10setFiltersE6QFlagsINS_14ServiceManager6FilterEE
libutopia2_auth.so:_ZN4Kend30ServiceManagerFilterProxyModel11qt_metacallEN11QMetaObject4CallEiPPv
libutopia2_auth.so:_ZN4Kend30ServiceManagerFilterProxyModel11qt_metacastEPKc
libutopia2_auth.so:_ZN4Kend30ServiceManagerFilterProxyModelC1E6QFlagsINS_14ServiceManager6FilterEEP7QObject
libutopia2_auth.so:_ZN4Kend30ServiceManagerFilterProxyModelC2E6QFlagsINS_14ServiceManager6FilterEEP7QObject
libutopia2_auth.so:_ZN4Kend30ServiceManagerFilterProxyModelD0Ev
libutopia2_auth.so:_ZN4Kend30ServiceManagerFilterProxyModelD1Ev
libutopia2_auth.so:_ZN4Kend30ServiceManagerFilterProxyModelD2Ev
libutopia2_auth.so:_ZN4Kend4User11infoChangedEv
libutopia2_auth.so:_ZN4Kend4User11qt_metacallEN11QMetaObject4CallEiPPv
libutopia2_auth.so:_ZN4Kend4User11qt_metacastEPKc
libutopia2_auth.so:_ZN4Kend4User12commitFailedEv
libutopia2_auth.so:_ZN4Kend4User13avatarChangedEv
libutopia2_auth.so:_ZN4Kend4User13defaultAvatarEv
libutopia2_auth.so:_ZN4Kend4User15commitCompletedEb
libutopia2_auth.so:_ZN4Kend4User15commitSucceededEv
libutopia2_auth.so:_ZN4Kend4User18displayNameChangedERK7QString
libutopia2_auth.so:_ZN4Kend4User18infoOverlayChangedEv
libutopia2_auth.so:_ZN4Kend4User20avatarOverlayChangedEv
libutopia2_auth.so:_ZN4Kend4User3setERK7QStringS3_
libutopia2_auth.so:_ZN4Kend4User5setupEv
libutopia2_auth.so:_ZN4Kend4User6commitEb
libutopia2_auth.so:_ZN4Kend4User6removeERK7QString
libutopia2_auth.so:_ZN4Kend4User6revertEv
libutopia2_auth.so:_ZN4Kend4User6updateEv
libutopia2_auth.so:_ZN4Kend4User7expiredEv
libutopia2_auth.so:_ZN4Kend4User9setAvatarERK7QPixmap
libutopia2_auth.so:_ZN4Kend4UserC1EPNS_7ServiceERK7QStringP7QObject
libutopia2_auth.so:_ZN4Kend4UserC2EPNS_7ServiceERK7QStringP7QObject
libutopia2_auth.so:_ZN4Kend4UserD0Ev
libutopia2_auth.so:_ZN4Kend4UserD1Ev
libutopia2_auth.so:_ZN4Kend4UserD2Ev
libutopia2_auth.so:_ZN4Kend7Service10setEnabledEb
libutopia2_auth.so:_ZN4Kend7Service10setUserURIERK7QString
libutopia2_auth.so:_ZN4Kend7Service11qt_metacallEN11QMetaObject4CallEiPPv
libutopia2_auth.so:_ZN4Kend7Service11qt_metacastEPKc
libutopia2_auth.so:_ZN4Kend7Service12serviceErrorEv
libutopia2_auth.so:_ZN4Kend7Service12setAnonymousEb
libutopia2_auth.so:_ZN4Kend7Service13logInCompleteERK7QStringS3_
libutopia2_auth.so:_ZN4Kend7Service14deleteResourceERK15QNetworkRequest
libutopia2_auth.so:_ZN4Kend7Service14logOutCompleteEv
libutopia2_auth.so:_ZN4Kend7Service14serviceStartedEv
libutopia2_auth.so:_ZN4Kend7Service14serviceStoppedEv
libutopia2_auth.so:_ZN4Kend7Service14setCredentialsERK4QMapI7QString8QVariantE
libutopia2_auth.so:_ZN4Kend7Service14setDescriptionERK7QString
libutopia2_auth.so:_ZN4Kend7Service16anonymityChangedEb
libutopia2_auth.so:_ZN4Kend7Service16serviceLoggingInEv
libutopia2_auth.so:_ZN4Kend7Service17serviceLoggingOutEv
libutopia2_auth.so:_ZN4Kend7Service17servicePopulatingEv
libutopia2_auth.so:_ZN4Kend7Service18credentialsChangedE4QMapI7QString8QVariantE
libutopia2_auth.so:_ZN4Kend7Service18descriptionChangedE7QString
libutopia2_auth.so:_ZN4Kend7Service18serviceNameChangedE7QString
libutopia2_auth.so:_ZN4Kend7Service18uncacheCredentialsERK10QByteArray
libutopia2_auth.so:_ZN4Kend7Service19serviceStateChangedENS0_12ServiceStateE
libutopia2_auth.so:_ZN4Kend7Service22newAuthenticationTokenE7QStringS1_
libutopia2_auth.so:_ZN4Kend7Service22setAuthenticationTokenERK7QString
libutopia2_auth.so:_ZN4Kend7Service23setAuthenticationMethodERK7QString
libutopia2_auth.so:_ZN4Kend7Service3getERK15QNetworkRequest
libutopia2_auth.so:_ZN4Kend7Service3putERK15QNetworkRequestP9QIODeviceRK7QString
libutopia2_auth.so:_ZN4Kend7Service3putERK15QNetworkRequestRK10QByteArrayRK7QString
libutopia2_auth.so:_ZN4Kend7Service4postERK15QNetworkRequestP9QIODeviceRK7QString
libutopia2_auth.so:_ZN4Kend7Service4postERK15QNetworkRequestRK10QByteArrayRK7QString
libutopia2_auth.so:_ZN4Kend7Service4stopEb
libutopia2_auth.so:_ZN4Kend7Service4userERK7QString
libutopia2_auth.so:_ZN4Kend7Service5logInEb
libutopia2_auth.so:_ZN4Kend7Service5resetEv
libutopia2_auth.so:_ZN4Kend7Service5startEb
libutopia2_auth.so:_ZN4Kend7Service6logOutEb
libutopia2_auth.so:_ZN4Kend7Service6saveToER9QSettings
libutopia2_auth.so:_ZN4Kend7Service6setUrlERK4QUrlb
libutopia2_auth.so:_ZN4Kend7Service8loadFromER9QSettings
libutopia2_auth.so:_ZN4Kend7Service8setErrorENS0_12ServiceErrorERK7QString
libutopia2_auth.so:_ZN4Kend7ServiceC1EP7QObject
libutopia2_auth.so:_ZN4Kend7ServiceC1ERK5QUuidP7QObject
libutopia2_auth.so:_ZN4Kend7ServiceC2EP7QObject
libutopia2_auth.so:_ZN4Kend7ServiceC2ERK5QUuidP7QObject
libutopia2_auth.so:_ZN4Kend7ServiceD0Ev
libutopia2_auth.so:_ZN4Kend7ServiceD1Ev
libutopia2_auth.so:_ZN4Kend7ServiceD2Ev
libutopia2_auth.so:_ZN4Kend9AuthAgent11qt_metacallEN11QMetaObject4CallEiPPv
libutopia2_auth.so:_ZN4Kend9AuthAgent11qt_metacastEPKc
libutopia2_auth.so:_ZN4Kend9AuthAgent15logOutCompletedEPNS_7ServiceE
libutopia2_auth.so:_ZN4Kend9AuthAgent16captureCompletedEPNS_7ServiceERK4QMapI7QString8QVariantE
libutopia2_auth.so:_ZN4Kend9AuthAgent5logInEPNS_7ServiceE
libutopia2_auth.so:_ZN4Kend9AuthAgent6logOutEPNS_7ServiceE
libutopia2_auth.so:_ZN4Kend9AuthAgent8instanceEv
libutopia2_auth.so:_ZN4Kend9AuthAgentC1Ev
libutopia2_auth.so:_ZN4Kend9AuthAgentC2Ev
libutopia2_auth.so:_ZNK4Kend11UserPrivate10isModifiedEb
libutopia2_auth.so:_ZNK4Kend11UserPrivate10metaObjectEv
libutopia2_auth.so:_ZNK4Kend11UserPrivate11computeInfoEv
libutopia2_auth.so:_ZNK4Kend11UserPrivate12computeValueERK7QStringS3_
libutopia2_auth.so:_ZNK4Kend14ServiceManager10metaObjectEv
libutopia2_auth.so:_ZNK4Kend14ServiceManager13getStatisticsEPiS1_S1_S1_
libutopia2_auth.so:_ZNK4Kend14ServiceManager5countEv
libutopia2_auth.so:_ZNK4Kend14ServiceManager7managesEPNS_7ServiceE
libutopia2_auth.so:_ZNK4Kend14ServiceManager7matchesEPNS_7ServiceE6QFlagsINS0_6FilterEE
libutopia2_auth.so:_ZNK4Kend14ServiceManager8servicesE6QFlagsINS0_6FilterEE
libutopia2_auth.so:_ZNK4Kend14ServiceManager9serviceAtEi
libutopia2_auth.so:_ZNK4Kend14ServicePrivate10metaObjectEv
libutopia2_auth.so:_ZNK4Kend16AuthAgentPrivate10metaObjectEv
libutopia2_auth.so:_ZNK4Kend19ServiceManagerModel10headerDataEiN2Qt11OrientationEi
libutopia2_auth.so:_ZNK4Kend19ServiceManagerModel10metaObjectEv
libutopia2_auth.so:_ZNK4Kend19ServiceManagerModel11columnCountERK11QModelIndex
libutopia2_auth.so:_ZNK4Kend19ServiceManagerModel4dataERK11QModelIndexi
libutopia2_auth.so:_ZNK4Kend19ServiceManagerModel5flagsERK11QModelIndex
libutopia2_auth.so:_ZNK4Kend19ServiceManagerModel5indexEiiRK11QModelIndex
libutopia2_auth.so:_ZNK4Kend19ServiceManagerModel6parentERK11QModelIndex
libutopia2_auth.so:_ZNK4Kend19ServiceManagerModel8rowCountERK11QModelIndex
libutopia2_auth.so:_ZNK4Kend21ServiceManagerPrivate10inProgressEv
libutopia2_auth.so:_ZNK4Kend21ServiceManagerPrivate10metaObjectEv
libutopia2_auth.so:_ZNK4Kend22ServiceManagerNotifier10metaObjectEv
libutopia2_auth.so:_ZNK4Kend22ServiceManagerNotifier7filtersEv
libutopia2_auth.so:_ZNK4Kend22ServiceManagerNotifier7isValidEv
libutopia2_auth.so:_ZNK4Kend26ServiceManagerModelPrivate10metaObjectEv
libutopia2_auth.so:_ZNK4Kend29ServiceManagerNotifierPrivate10metaObjectEv
libutopia2_auth.so:_ZNK4Kend30ServiceManagerFilterProxyModel10metaObjectEv
libutopia2_auth.so:_ZNK4Kend30ServiceManagerFilterProxyModel16filterAcceptsRowEiRK11QModelIndex
libutopia2_auth.so:_ZNK4Kend30ServiceManagerFilterProxyModel7filtersEv
libutopia2_auth.so:_ZNK4Kend4User10isModifiedEv
libutopia2_auth.so:_ZNK4Kend4User10isReadOnlyEv
libutopia2_auth.so:_ZNK4Kend4User10metaObjectEv
libutopia2_auth.so:_ZNK4Kend4User11displayNameEv
libutopia2_auth.so:_ZNK4Kend4User11errorStringEv
libutopia2_auth.so:_ZNK4Kend4User14isInfoModifiedEv
libutopia2_auth.so:_ZNK4Kend4User16isAvatarModifiedEv
libutopia2_auth.so:_ZNK4Kend4User16isAvatarReadOnlyEv
libutopia2_auth.so:_ZNK4Kend4User2idEv
libutopia2_auth.so:_ZNK4Kend4User3getERK7QStringS3_
libutopia2_auth.so:_ZNK4Kend4User4infoEv
libutopia2_auth.so:_ZNK4Kend4User5cloneEP7QObject
libutopia2_auth.so:_ZNK4Kend4User6avatarEv
libutopia2_auth.so:_ZNK4Kend4User6isNullEv
libutopia2_auth.so:_ZNK4Kend4User7createdEv
libutopia2_auth.so:_ZNK4Kend4User7updatedEv
libutopia2_auth.so:_ZNK4Kend4User9errorCodeEv
libutopia2_auth.so:_ZNK4Kend7Service10isLoggedInEv
libutopia2_auth.so:_ZNK4Kend7Service10metaObjectEv
libutopia2_auth.so:_ZNK4Kend7Service11credentialsEv
libutopia2_auth.so:_ZNK4Kend7Service11descriptionEv
libutopia2_auth.so:_ZNK4Kend7Service11errorStringEv
libutopia2_auth.so:_ZNK4Kend7Service11isAnonymousEv
libutopia2_auth.so:_ZNK4Kend7Service11resourceUrlENS0_12ResourceTypeE
libutopia2_auth.so:_ZNK4Kend7Service11serviceNameEv
libutopia2_auth.so:_ZNK4Kend7Service12serviceStateEv
libutopia2_auth.so:_ZNK4Kend7Service16cacheCredentialsEv
libutopia2_auth.so:_ZNK4Kend7Service19authenticationTokenEv
libutopia2_auth.so:_ZNK4Kend7Service20authenticationMethodEv
libutopia2_auth.so:_ZNK4Kend7Service20resourceCapabilitiesENS0_12ResourceTypeE
libutopia2_auth.so:_ZNK4Kend7Service30supportedAuthenticationMethodsEv
libutopia2_auth.so:_ZNK4Kend7Service3urlEv
libutopia2_auth.so:_ZNK4Kend7Service4uuidEv
libutopia2_auth.so:_ZNK4Kend7Service7userURIEv
libutopia2_auth.so:_ZNK4Kend7Service9errorCodeEv
libutopia2_auth.so:_ZNK4Kend7Service9isEnabledEv
libutopia2_auth.so:_ZNK4Kend9AuthAgent10metaObjectEv
libutopia2_auth.so:_ZNK4Kend9AuthAgent30supportedAuthenticationSchemasEv
libutopia2_auth.so:cJSON_AddItemReferenceToArray
libutopia2_auth.so:cJSON_AddItemReferenceToObject
libutopia2_auth.so:cJSON_AddItemToArray
libutopia2_auth.so:cJSON_AddItemToObject
libutopia2_auth.so:cJSON_CreateArray
libutopia2_auth.so:cJSON_CreateDoubleArray
libutopia2_auth.so:cJSON_CreateFalse
libutopia2_auth.so:cJSON_CreateFloatArray
libutopia2_auth.so:cJSON_CreateIntArray
libutopia2_auth.so:cJSON_CreateNull
libutopia2_auth.so:cJSON_CreateNumber
libutopia2_auth.so:cJSON_CreateObject
libutopia2_auth.so:cJSON_CreateString
libutopia2_auth.so:cJSON_CreateStringArray
libutopia2_auth.so:cJSON_CreateTrue
libutopia2_auth.so:cJSON_Delete
libutopia2_auth.so:cJSON_DeleteItemFromArray
libutopia2_auth.so:cJSON_DeleteItemFromObject
libutopia2_auth.so:cJSON_DetachItemFromArray
libutopia2_auth.so:cJSON_DetachItemFromObject
libutopia2_auth.so:cJSON_GetArrayItem
libutopia2_auth.so:cJSON_GetArraySize
libutopia2_auth.so:cJSON_GetObjectItem
libutopia2_auth.so:cJSON_InitHooks
libutopia2_auth.so:cJSON_Parse
libutopia2_auth.so:cJSON_Print
libutopia2_auth.so:cJSON_PrintUnformatted
libutopia2_auth.so:cJSON_ReplaceItemInArray
libutopia2_auth.so:cJSON_ReplaceItemInObject
libutopia2_auth_qt.so:_Z36qInitResources_utopia2_auth_qt_iconsv
libutopia2_auth_qt.so:_Z39qCleanupResources_utopia2_auth_qt_iconsv
libutopia2_auth_qt.so:_ZN4Kend14ServiceChooser10setFiltersE6QFlagsINS_14ServiceManager6FilterEE
libutopia2_auth_qt.so:_ZN4Kend14ServiceChooser11qt_metacallEN11QMetaObject4CallEiPPv
libutopia2_auth_qt.so:_ZN4Kend14ServiceChooser11qt_metacastEPKc
libutopia2_auth_qt.so:_ZN4Kend14ServiceChooser15validityChangedEb
libutopia2_auth_qt.so:_ZN4Kend14ServiceChooser17setInvalidMessageERK7QString
libutopia2_auth_qt.so:_ZN4Kend14ServiceChooser20chosenServiceChangedEPNS_7ServiceE
libutopia2_auth_qt.so:_ZN4Kend14ServiceChooser9setFormatERK7QString
libutopia2_auth_qt.so:_ZN4Kend14ServiceChooserC1E6QFlagsINS_14ServiceManager6FilterEEP7QWidget
libutopia2_auth_qt.so:_ZN4Kend14ServiceChooserC2E6QFlagsINS_14ServiceManager6FilterEEP7QWidget
libutopia2_auth_qt.so:_ZN4Kend14UserInfoEditor11qt_metacallEN11QMetaObject4CallEiPPv
libutopia2_auth_qt.so:_ZN4Kend14UserInfoEditor11qt_metacastEPKc
libutopia2_auth_qt.so:_ZN4Kend14UserInfoEditor5clearEv
libutopia2_auth_qt.so:_ZN4Kend14UserInfoEditor7setUserEPNS_7ServiceERK7QString
libutopia2_auth_qt.so:_ZN4Kend14UserInfoEditor9showEventEP10QShowEvent
libutopia2_auth_qt.so:_ZN4Kend14UserInfoEditorC1EP7QWidget
libutopia2_auth_qt.so:_ZN4Kend14UserInfoEditorC2EP7QWidget
libutopia2_auth_qt.so:_ZN4Kend16UserLabelPrivate11qt_metacallEN11QMetaObject4CallEiPPv
libutopia2_auth_qt.so:_ZN4Kend16UserLabelPrivate11qt_metacastEPKc
libutopia2_auth_qt.so:_ZN4Kend16UserLabelPrivate13onUserChangedEv
libutopia2_auth_qt.so:_ZN4Kend16UserLabelPrivate5resetEPNS_4UserE
libutopia2_auth_qt.so:_ZN4Kend16UserLabelPrivateC1EPNS_4UserENS_9UserLabel8UserDataEPS3_
libutopia2_auth_qt.so:_ZN4Kend16UserLabelPrivateC2EPNS_4UserENS_9UserLabel8UserDataEPS3_
libutopia2_auth_qt.so:_ZN4Kend17ServiceStatusIcon10paintEventEP11QPaintEvent
libutopia2_auth_qt.so:_ZN4Kend17ServiceStatusIcon11qt_metacallEN11QMetaObject4CallEiPPv
libutopia2_auth_qt.so:_ZN4Kend17ServiceStatusIcon11qt_metacastEPKc
libutopia2_auth_qt.so:_ZN4Kend17ServiceStatusIconC1EP7QWidget
libutopia2_auth_qt.so:_ZN4Kend17ServiceStatusIconC2EP7QWidget
libutopia2_auth_qt.so:_ZN4Kend19ResetPasswordDialog10setServiceEPNS_7ServiceE
libutopia2_auth_qt.so:_ZN4Kend19ResetPasswordDialog11qt_metacallEN11QMetaObject4CallEiPPv
libutopia2_auth_qt.so:_ZN4Kend19ResetPasswordDialog11qt_metacastEPKc
libutopia2_auth_qt.so:_ZN4Kend19ResetPasswordDialog5clearEv
libutopia2_auth_qt.so:_ZN4Kend19ResetPasswordDialog8setEmailERK7QString
libutopia2_auth_qt.so:_ZN4Kend19ResetPasswordDialog9showEventEP10QShowEvent
libutopia2_auth_qt.so:_ZN4Kend19ResetPasswordDialogC1EP7QWidget
libutopia2_auth_qt.so:_ZN4Kend19ResetPasswordDialogC2EP7QWidget
libutopia2_auth_qt.so:_ZN4Kend21ServiceChooserPrivate11qt_metacallEN11QMetaObject4CallEiPPv
libutopia2_auth_qt.so:_ZN4Kend21ServiceChooserPrivate11qt_metacastEPKc
libutopia2_auth_qt.so:_ZN4Kend21ServiceChooserPrivate14onRowsInsertedERK11QModelIndexii
libutopia2_auth_qt.so:_ZN4Kend21ServiceChooserPrivate15onButtonPressedEv
libutopia2_auth_qt.so:_ZN4Kend21ServiceChooserPrivate15validityChangedEb
libutopia2_auth_qt.so:_ZN4Kend21ServiceChooserPrivate18onSelectionChangedERK14QItemSelectionS3_
libutopia2_auth_qt.so:_ZN4Kend21ServiceChooserPrivate20chosenServiceChangedEPNS_7ServiceE
libutopia2_auth_qt.so:_ZN4Kend21ServiceChooserPrivate20setChosenServiceNameEv
libutopia2_auth_qt.so:_ZN4Kend21ServiceChooserPrivate21setCurrentServiceUuidERK7QString
libutopia2_auth_qt.so:_ZN4Kend21ServiceChooserPrivate22onRowsAboutToBeRemovedERK11QModelIndexii
libutopia2_auth_qt.so:_ZN4Kend21ServiceChooserPrivate9selectRowEi
libutopia2_auth_qt.so:_ZN4Kend21ServiceChooserPrivateC1EPNS_14ServiceChooserE6QFlagsINS_14ServiceManager6FilterEE
libutopia2_auth_qt.so:_ZN4Kend21ServiceChooserPrivateC2EPNS_14ServiceChooserE6QFlagsINS_14ServiceManager6FilterEE
libutopia2_auth_qt.so:_ZN4Kend21UserInfoEditorPrivate10pickAvatarEv
libutopia2_auth_qt.so:_ZN4Kend21UserInfoEditorPrivate11qt_metacallEN11QMetaObject4CallEiPPv
libutopia2_auth_qt.so:_ZN4Kend21UserInfoEditorPrivate11qt_metacastEPKc
libutopia2_auth_qt.so:_ZN4Kend21UserInfoEditorPrivate13setEmailErrorERK7QString
libutopia2_auth_qt.so:_ZN4Kend21UserInfoEditorPrivate15onLinkActivatedERK7QString
libutopia2_auth_qt.so:_ZN4Kend21UserInfoEditorPrivate17informEmailChangeEv
libutopia2_auth_qt.so:_ZN4Kend21UserInfoEditorPrivate17onCommitCompletedEb
libutopia2_auth_qt.so:_ZN4Kend21UserInfoEditorPrivate17onOkButtonClickedEv
libutopia2_auth_qt.so:_ZN4Kend21UserInfoEditorPrivate17onUserInfoChangedEv
libutopia2_auth_qt.so:_ZN4Kend21UserInfoEditorPrivate19setNewPasswordErrorEb
libutopia2_auth_qt.so:_ZN4Kend21UserInfoEditorPrivate19setOldPasswordErrorEb
libutopia2_auth_qt.so:_ZN4Kend21UserInfoEditorPrivate21onCancelButtonClickedEv
libutopia2_auth_qt.so:_ZN4Kend21UserInfoEditorPrivate23informEmailChangeCancelEv
libutopia2_auth_qt.so:_ZN4Kend21UserInfoEditorPrivate23setConfirmPasswordErrorERK7QString
libutopia2_auth_qt.so:_ZN4Kend21UserInfoEditorPrivate5resetEPNS_7ServiceERK7QString
libutopia2_auth_qt.so:_ZN4Kend21UserInfoEditorPrivate6commitEb
libutopia2_auth_qt.so:_ZN4Kend21UserInfoEditorPrivate6resizeEv
libutopia2_auth_qt.so:_ZN4Kend21UserInfoEditorPrivateC1EPNS_14UserInfoEditorE
libutopia2_auth_qt.so:_ZN4Kend21UserInfoEditorPrivateC2EPNS_14UserInfoEditorE
libutopia2_auth_qt.so:_ZN4Kend22UserRegistrationDialog10setServiceEPNS_7ServiceE
libutopia2_auth_qt.so:_ZN4Kend22UserRegistrationDialog11qt_metacallEN11QMetaObject4CallEiPPv
libutopia2_auth_qt.so:_ZN4Kend22UserRegistrationDialog11qt_metacastEPKc
libutopia2_auth_qt.so:_ZN4Kend22UserRegistrationDialog5clearEv
libutopia2_auth_qt.so:_ZN4Kend22UserRegistrationDialog9showEventEP10QShowEvent
libutopia2_auth_qt.so:_ZN4Kend22UserRegistrationDialogC1EP7QWidget
libutopia2_auth_qt.so:_ZN4Kend22UserRegistrationDialogC2EP7QWidget
libutopia2_auth_qt.so:_ZN4Kend24ServiceStatusIconPrivate10updateIconEv
libutopia2_auth_qt.so:_ZN4Kend24ServiceStatusIconPrivate11qt_metacallEN11QMetaObject4CallEiPPv
libutopia2_auth_qt.so:_ZN4Kend24ServiceStatusIconPrivate11qt_metacastEPKc
libutopia2_auth_qt.so:_ZN4Kend24ServiceStatusIconPrivate21onServiceStateChangedEPNS_7ServiceENS1_12ServiceStateE
libutopia2_auth_qt.so:_ZN4Kend24ServiceStatusIconPrivate6updateEv
libutopia2_auth_qt.so:_ZN4Kend24ServiceStatusIconPrivateC1EPNS_17ServiceStatusIconE
libutopia2_auth_qt.so:_ZN4Kend24ServiceStatusIconPrivateC2EPNS_17ServiceStatusIconE
libutopia2_auth_qt.so:_ZN4Kend26ResetPasswordDialogPrivate11qt_metacallEN11QMetaObject4CallEiPPv
libutopia2_auth_qt.so:_ZN4Kend26ResetPasswordDialogPrivate11qt_metacastEPKc
libutopia2_auth_qt.so:_ZN4Kend26ResetPasswordDialogPrivate13setEmailErrorERK7QString
libutopia2_auth_qt.so:_ZN4Kend26ResetPasswordDialogPrivate15informEmailSentEv
libutopia2_auth_qt.so:_ZN4Kend26ResetPasswordDialogPrivate19onSendButtonClickedEv
libutopia2_auth_qt.so:_ZN4Kend26ResetPasswordDialogPrivate21onCancelButtonClickedEv
libutopia2_auth_qt.so:_ZN4Kend26ResetPasswordDialogPrivate5resetEPNS_7ServiceE
libutopia2_auth_qt.so:_ZN4Kend26ResetPasswordDialogPrivate6commitEv
libutopia2_auth_qt.so:_ZN4Kend26ResetPasswordDialogPrivate6resizeEv
libutopia2_auth_qt.so:_ZN4Kend26ResetPasswordDialogPrivateC1EPNS_19ResetPasswordDialogE
libutopia2_auth_qt.so:_ZN4Kend26ResetPasswordDialogPrivateC2EPNS_19ResetPasswordDialogE
libutopia2_auth_qt.so:_ZN4Kend29UserRegistrationDialogPrivate10pickAvatarEv
libutopia2_auth_qt.so:_ZN4Kend29UserRegistrationDialogPrivate11eventFilterEP7QObjectP6QEvent
libutopia2_auth_qt.so:_ZN4Kend29UserRegistrationDialogPrivate11qt_metacallEN11QMetaObject4CallEiPPv
libutopia2_auth_qt.so:_ZN4Kend29UserRegistrationDialogPrivate11qt_metacastEPKc
libutopia2_auth_qt.so:_ZN4Kend29UserRegistrationDialogPrivate13setEmailErrorERK7QString
libutopia2_auth_qt.so:_ZN4Kend29UserRegistrationDialogPrivate13verticalLabelERK7QStringP7QWidget
libutopia2_auth_qt.so:_ZN4Kend29UserRegistrationDialogPrivate15onLinkActivatedERK7QString
libutopia2_auth_qt.so:_ZN4Kend29UserRegistrationDialogPrivate16setPasswordErrorERK7QString
libutopia2_auth_qt.so:_ZN4Kend29UserRegistrationDialogPrivate17onCommitCompletedEb
libutopia2_auth_qt.so:_ZN4Kend29UserRegistrationDialogPrivate17onOkButtonClickedEv
libutopia2_auth_qt.so:_ZN4Kend29UserRegistrationDialogPrivate21onCancelButtonClickedEv
libutopia2_auth_qt.so:_ZN4Kend29UserRegistrationDialogPrivate23informEmailConfirmationEv
libutopia2_auth_qt.so:_ZN4Kend29UserRegistrationDialogPrivate5resetEPNS_7ServiceE
libutopia2_auth_qt.so:_ZN4Kend29UserRegistrationDialogPrivate6commitERK4QMapI7QStringS2_E
libutopia2_auth_qt.so:_ZN4Kend29UserRegistrationDialogPrivate6resizeEv
libutopia2_auth_qt.so:_ZN4Kend29UserRegistrationDialogPrivateC1EPNS_22UserRegistrationDialogE
libutopia2_auth_qt.so:_ZN4Kend29UserRegistrationDialogPrivateC2EPNS_22UserRegistrationDialogE
libutopia2_auth_qt.so:_ZN4Kend9UserLabel10paintEventEP11QPaintEvent
libutopia2_auth_qt.so:_ZN4Kend9UserLabel11qt_metacallEN11QMetaObject4CallEiPPv
libutopia2_auth_qt.so:_ZN4Kend9UserLabel11qt_metacastEPKc
libutopia2_auth_qt.so:_ZN4Kend9UserLabel12setClickableEb
libutopia2_auth_qt.so:_ZN4Kend9UserLabel17mouseReleaseEventEP11QMouseEvent
libutopia2_auth_qt.so:_ZN4Kend9UserLabel17setRoundedCornersEb
libutopia2_auth_qt.so:_ZN4Kend9UserLabel5clearEv
libutopia2_auth_qt.so:_ZN4Kend9UserLabel7clickedEv
libutopia2_auth_qt.so:_ZN4Kend9UserLabel7setUserEPNS_4UserE
libutopia2_auth_qt.so:_ZN4Kend9UserLabel7setUserEPNS_7ServiceERK7QString
libutopia2_auth_qt.so:_ZN4Kend9UserLabelC1ENS0_8UserDataEP7QWidget
libutopia2_auth_qt.so:_ZN4Kend9UserLabelC1EPNS_4UserENS0_8UserDataEP7QWidget
libutopia2_auth_qt.so:_ZN4Kend9UserLabelC1EPNS_7ServiceERK7QStringNS0_8UserDataEP7QWidget
libutopia2_auth_qt.so:_ZN4Kend9UserLabelC2ENS0_8UserDataEP7QWidget
libutopia2_auth_qt.so:_ZN4Kend9UserLabelC2EPNS_4UserENS0_8UserDataEP7QWidget
libutopia2_auth_qt.so:_ZN4Kend9UserLabelC2EPNS_7ServiceERK7QStringNS0_8UserDataEP7QWidget
libutopia2_auth_qt.so:_ZN6Utopia12Conversation10addCommentEPNS_19AbstractCommentDataE
libutopia2_auth_qt.so:_ZN6Utopia12Conversation10newCommentERK7QStringbS3_
libutopia2_auth_qt.so:_ZN6Utopia12Conversation11qt_metacallEN11QMetaObject4CallEiPPv
libutopia2_auth_qt.so:_ZN6Utopia12Conversation11qt_metacastEPKc
libutopia2_auth_qt.so:_ZN6Utopia12Conversation13deleteCommentE7QString
libutopia2_auth_qt.so:_ZN6Utopia12Conversation13insertCommentEPNS_7CommentE
libutopia2_auth_qt.so:_ZN6Utopia12Conversation13removeCommentE7QString
libutopia2_auth_qt.so:_ZN6Utopia12Conversation14hideReplyFieldEv
libutopia2_auth_qt.so:_ZN6Utopia12Conversation14newCommentFailEv
libutopia2_auth_qt.so:_ZN6Utopia12Conversation14publishCommentE7QString
libutopia2_auth_qt.so:_ZN6Utopia12Conversation14refreshCommentE7QString
libutopia2_auth_qt.so:_ZN6Utopia12Conversation14showReplyFieldEv
libutopia2_auth_qt.so:_ZN6Utopia12Conversation15deleteMyCommentERK7QString
libutopia2_auth_qt.so:_ZN6Utopia12Conversation16hideCommentFieldEv
libutopia2_auth_qt.so:_ZN6Utopia12Conversation16publishMyCommentERK7QStringb
libutopia2_auth_qt.so:_ZN6Utopia12Conversation16saveReplyClickedEv
libutopia2_auth_qt.so:_ZN6Utopia12Conversation16showCommentFieldEv
libutopia2_auth_qt.so:_ZN6Utopia12Conversation17deleteCommentFailEv
libutopia2_auth_qt.so:_ZN6Utopia12Conversation17newCommentSuccessEv
libutopia2_auth_qt.so:_ZN6Utopia12Conversation18publishCommentFailEv
libutopia2_auth_qt.so:_ZN6Utopia12Conversation18submitReplyClickedEv
libutopia2_auth_qt.so:_ZN6Utopia12Conversation20allowAddCommentFieldEv
libutopia2_auth_qt.so:_ZN6Utopia12Conversation20deleteCommentSuccessEv
libutopia2_auth_qt.so:_ZN6Utopia12Conversation21publishCommentSuccessEv
libutopia2_auth_qt.so:_ZN6Utopia12Conversation21saveNewCommentClickedEv
libutopia2_auth_qt.so:_ZN6Utopia12Conversation23submitNewCommentClickedEv
libutopia2_auth_qt.so:_ZN6Utopia12ConversationC1EP7QWidget
libutopia2_auth_qt.so:_ZN6Utopia12ConversationC2EP7QWidget
libutopia2_auth_qt.so:_ZN6Utopia13CommentEditor10paintEventEP11QPaintEvent
libutopia2_auth_qt.so:_ZN6Utopia13CommentEditor11qt_metacallEN11QMetaObject4CallEiPPv
libutopia2_auth_qt.so:_ZN6Utopia13CommentEditor11qt_metacastEPKc
libutopia2_auth_qt.so:_ZN6Utopia13CommentEditor13setStandaloneEv
libutopia2_auth_qt.so:_ZN6Utopia13CommentEditor16setParentCommentEPNS_7CommentE
libutopia2_auth_qt.so:_ZN6Utopia13CommentEditor17onValidityChangedEb
libutopia2_auth_qt.so:_ZN6Utopia13CommentEditor4showEv
libutopia2_auth_qt.so:_ZN6Utopia13CommentEditor4textEv
libutopia2_auth_qt.so:_ZN6Utopia13CommentEditor5clearEv
libutopia2_auth_qt.so:_ZN6Utopia13CommentEditor5savedEv
libutopia2_auth_qt.so:_ZN6Utopia13CommentEditor9cancelledEv
libutopia2_auth_qt.so:_ZN6Utopia13CommentEditor9submittedEv
libutopia2_auth_qt.so:_ZN6Utopia13CommentEditorC1EPNS_7CommentE
libutopia2_auth_qt.so:_ZN6Utopia13CommentEditorC2EPNS_7CommentE
libutopia2_auth_qt.so:_ZN6Utopia7Comment10drawBubbleEv
libutopia2_auth_qt.so:_ZN6Utopia7Comment10setDetailsE4QMapI7QStringS2_E
libutopia2_auth_qt.so:_ZN6Utopia7Comment11commentDataEv
libutopia2_auth_qt.so:_ZN6Utopia7Comment11qt_metacallEN11QMetaObject4CallEiPPv
libutopia2_auth_qt.so:_ZN6Utopia7Comment11qt_metacastEPKc
libutopia2_auth_qt.so:_ZN6Utopia7Comment12replyPressedEv
libutopia2_auth_qt.so:_ZN6Utopia7Comment13deletePressedE7QString
libutopia2_auth_qt.so:_ZN6Utopia7Comment13updateCommentEv
libutopia2_auth_qt.so:_ZN6Utopia7Comment14publishPressedE7QString
libutopia2_auth_qt.so:_ZN6Utopia7Comment14updateMePleaseEv
libutopia2_auth_qt.so:_ZN6Utopia7Comment15mousePressEventEP11QMouseEvent
libutopia2_auth_qt.so:_ZN6Utopia7Comment4dateEv
libutopia2_auth_qt.so:_ZN6Utopia7Comment6reportEv
libutopia2_auth_qt.so:_ZN6Utopia7Comment7getDataEv
libutopia2_auth_qt.so:_ZN6Utopia7Comment7isDraftEv
libutopia2_auth_qt.so:_ZN6Utopia7Comment7refreshEv
libutopia2_auth_qt.so:_ZN6Utopia7Comment8deleteMeEv
libutopia2_auth_qt.so:_ZN6Utopia7Comment8setImageE6QImage
libutopia2_auth_qt.so:_ZN6Utopia7Comment9editFieldEPNS_11FieldEditorE
libutopia2_auth_qt.so:_ZN6Utopia7Comment9publishMeEv
libutopia2_auth_qt.so:_ZN6Utopia7CommentC1EPS0_PNS_19AbstractCommentDataEbb
libutopia2_auth_qt.so:_ZN6Utopia7CommentC2EPS0_PNS_19AbstractCommentDataEbb
libutopia2_auth_qt.so:_ZNK4Kend14ServiceChooser10metaObjectEv
libutopia2_auth_qt.so:_ZNK4Kend14ServiceChooser14invalidMessageEv
libutopia2_auth_qt.so:_ZNK4Kend14ServiceChooser15selectedServiceEv
libutopia2_auth_qt.so:_ZNK4Kend14ServiceChooser6formatEv
libutopia2_auth_qt.so:_ZNK4Kend14ServiceChooser7filtersEv
libutopia2_auth_qt.so:_ZNK4Kend14UserInfoEditor10metaObjectEv
libutopia2_auth_qt.so:_ZNK4Kend16UserLabelPrivate10metaObjectEv
libutopia2_auth_qt.so:_ZNK4Kend17ServiceStatusIcon10metaObjectEv
libutopia2_auth_qt.so:_ZNK4Kend19ResetPasswordDialog10metaObjectEv
libutopia2_auth_qt.so:_ZNK4Kend21ServiceChooserPrivate10metaObjectEv
libutopia2_auth_qt.so:_ZNK4Kend21ServiceChooserPrivate11selectedRowEv
libutopia2_auth_qt.so:_ZNK4Kend21UserInfoEditorPrivate10metaObjectEv
libutopia2_auth_qt.so:_ZNK4Kend22UserRegistrationDialog10metaObjectEv
libutopia2_auth_qt.so:_ZNK4Kend24ServiceStatusIconPrivate10metaObjectEv
libutopia2_auth_qt.so:_ZNK4Kend26ResetPasswordDialogPrivate10metaObjectEv
libutopia2_auth_qt.so:_ZNK4Kend29UserRegistrationDialogPrivate10metaObjectEv
libutopia2_auth_qt.so:_ZNK4Kend9UserLabel10metaObjectEv
libutopia2_auth_qt.so:_ZNK4Kend9UserLabel11isClickableEv
libutopia2_auth_qt.so:_ZNK4Kend9UserLabel17hasRoundedCornersEv
libutopia2_auth_qt.so:_ZNK6Utopia12Conversation10metaObjectEv
libutopia2_auth_qt.so:_ZNK6Utopia12Conversation7getRootEv
libutopia2_auth_qt.so:_ZNK6Utopia13CommentEditor10metaObjectEv
libutopia2_auth_qt.so:_ZNK6Utopia7Comment10metaObjectEv
libutopia2_auth_qt.so:_ZNK6Utopia7Comment11indentLevelEv
libutopia2_auth_qt.so:_ZNK6Utopia7Comment13parentCommentEv
libutopia2_qt.so:_Z25qInitResources_utopia2_qtv
libutopia2_qt.so:_Z28qCleanupResources_utopia2_qtv
libutopia2_qt.so:_Z29qInitResources_utopia2_qt_cssv
libutopia2_qt.so:_Z32qCleanupResources_utopia2_qt_cssv
libutopia2_qt.so:_ZN14CombinedWidget11qt_metacallEN11QMetaObject4CallEiPPv
libutopia2_qt.so:_ZN14CombinedWidget11qt_metacastEPKc
libutopia2_qt.so:_ZN14CombinedWidget3setEP6QLabelS1_
libutopia2_qt.so:_ZN14CombinedWidgetC1EP7QWidget
libutopia2_qt.so:_ZN14CombinedWidgetC2EP7QWidget
libutopia2_qt.so:_ZN6Utopia11AboutDialog11qt_metacallEN11QMetaObject4CallEiPPv
libutopia2_qt.so:_ZN6Utopia11AboutDialog11qt_metacastEPKc
libutopia2_qt.so:_ZN6Utopia11AboutDialogC1EP7QWidget
libutopia2_qt.so:_ZN6Utopia11AboutDialogC2EP7QWidget
libutopia2_qt.so:_ZN6Utopia11ActionProxy10setProxiedEP7QAction
libutopia2_qt.so:_ZN6Utopia11ActionProxyC1EP7QActionP7QObject
libutopia2_qt.so:_ZN6Utopia11ActionProxyC1EP7QObject
libutopia2_qt.so:_ZN6Utopia11ActionProxyC1ERK7QStringP7QObject
libutopia2_qt.so:_ZN6Utopia11ActionProxyC2EP7QActionP7QObject
libutopia2_qt.so:_ZN6Utopia11ActionProxyC2EP7QObject
libutopia2_qt.so:_ZN6Utopia11ActionProxyC2ERK7QStringP7QObject
libutopia2_qt.so:_ZN6Utopia11CloseButton10paintEventEP11QPaintEvent
libutopia2_qt.so:_ZN6Utopia11CloseButton11qt_metacallEN11QMetaObject4CallEiPPv
libutopia2_qt.so:_ZN6Utopia11CloseButton11qt_metacastEPKc
libutopia2_qt.so:_ZN6Utopia11CloseButtonC1EP7QWidget
libutopia2_qt.so:_ZN6Utopia11CloseButtonC2EP7QWidget
libutopia2_qt.so:_ZN6Utopia11ElidedLabel11qt_metacallEN11QMetaObject4CallEiPPv
libutopia2_qt.so:_ZN6Utopia11ElidedLabel11qt_metacastEPKc
libutopia2_qt.so:_ZN6Utopia11ElidedLabel11resizeEventEP12QResizeEvent
libutopia2_qt.so:_ZN6Utopia11ElidedLabel16setTextElideModeEN2Qt13TextElideModeE
libutopia2_qt.so:_ZN6Utopia11ElidedLabel7setTextERK7QString
libutopia2_qt.so:_ZN6Utopia11ElidedLabelC1EP7QWidget6QFlagsIN2Qt10WindowTypeEE
libutopia2_qt.so:_ZN6Utopia11ElidedLabelC1ERK7QStringP7QWidget6QFlagsIN2Qt10WindowTypeEE
libutopia2_qt.so:_ZN6Utopia11ElidedLabelC2EP7QWidget6QFlagsIN2Qt10WindowTypeEE
libutopia2_qt.so:_ZN6Utopia11ElidedLabelC2ERK7QStringP7QWidget6QFlagsIN2Qt10WindowTypeEE
libutopia2_qt.so:_ZN6Utopia11ElidedLabelD0Ev
libutopia2_qt.so:_ZN6Utopia11ElidedLabelD1Ev
libutopia2_qt.so:_ZN6Utopia11ElidedLabelD2Ev
libutopia2_qt.so:_ZN6Utopia11EmptyButton10paintEventEP11QPaintEvent
libutopia2_qt.so:_ZN6Utopia11EmptyButton11qt_metacallEN11QMetaObject4CallEiPPv
libutopia2_qt.so:_ZN6Utopia11EmptyButton11qt_metacastEPKc
libutopia2_qt.so:_ZN6Utopia11EmptyButtonC1EP7QWidget
libutopia2_qt.so:_ZN6Utopia11EmptyButtonC2EP7QWidget
libutopia2_qt.so:_ZN6Utopia11FieldEditor10enterEventEP6QEvent
libutopia2_qt.so:_ZN6Utopia11FieldEditor10leaveEventEP6QEvent
libutopia2_qt.so:_ZN6Utopia11FieldEditor10paintEventEP11QPaintEvent
libutopia2_qt.so:_ZN6Utopia11FieldEditor11qt_metacallEN11QMetaObject4CallEiPPv
libutopia2_qt.so:_ZN6Utopia11FieldEditor11qt_metacastEPKc
libutopia2_qt.so:_ZN6Utopia11FieldEditor11setEditableEb
libutopia2_qt.so:_ZN6Utopia11FieldEditor14editorWordWrapEv
libutopia2_qt.so:_ZN6Utopia11FieldEditor15mousePressEventEP11QMouseEvent
libutopia2_qt.so:_ZN6Utopia11FieldEditor17setEditorWordWrapEb
libutopia2_qt.so:_ZN6Utopia11FieldEditor7isEmptyEv
libutopia2_qt.so:_ZN6Utopia11FieldEditor7setTextERK7QString
libutopia2_qt.so:_ZN6Utopia11FieldEditor8stopEditEv
libutopia2_qt.so:_ZN6Utopia11FieldEditor9lostFocusEv
libutopia2_qt.so:_ZN6Utopia11FieldEditor9startEditEPS0_
libutopia2_qt.so:_ZN6Utopia11FieldEditorC1EP7QWidget7QString
libutopia2_qt.so:_ZN6Utopia11FieldEditorC2EP7QWidget7QString
libutopia2_qt.so:_ZN6Utopia11FlowBrowser10wheelEventEP11QWheelEvent
libutopia2_qt.so:_ZN6Utopia11FlowBrowser11qt_metacallEN11QMetaObject4CallEiPPv
libutopia2_qt.so:_ZN6Utopia11FlowBrowser11qt_metacastEPKc
libutopia2_qt.so:_ZN6Utopia11FlowBrowser12applyTextureEv
libutopia2_qt.so:_ZN6Utopia11FlowBrowser12initializeGLEv
libutopia2_qt.so:_ZN6Utopia11FlowBrowser13setSeparationEd
libutopia2_qt.so:_ZN6Utopia11FlowBrowser14mouseMoveEventEP11QMouseEvent
libutopia2_qt.so:_ZN6Utopia11FlowBrowser15mousePressEventEP11QMouseEvent
libutopia2_qt.so:_ZN6Utopia11FlowBrowser15setCurrentModelEPNS_16FlowBrowserModelE
libutopia2_qt.so:_ZN6Utopia11FlowBrowser17mouseReleaseEventEP11QMouseEvent
libutopia2_qt.so:_ZN6Utopia11FlowBrowser21mouseDoubleClickEventEP11QMouseEvent
libutopia2_qt.so:_ZN6Utopia11FlowBrowser25setDefaultBackgroundColorERK6QColor
libutopia2_qt.so:_ZN6Utopia11FlowBrowser4initEv
libutopia2_qt.so:_ZN6Utopia11FlowBrowser5clearEv
libutopia2_qt.so:_ZN6Utopia11FlowBrowser7indexAtEii
libutopia2_qt.so:_ZN6Utopia11FlowBrowser7paintGLEv
libutopia2_qt.so:_ZN6Utopia11FlowBrowser8addModelERK7QString
libutopia2_qt.so:_ZN6Utopia11FlowBrowser8resizeGLEii
libutopia2_qt.so:_ZN6Utopia11FlowBrowser9setOffsetEd
libutopia2_qt.so:_ZN6Utopia11FlowBrowserC1EP10QGLContextP7QWidgetPK9QGLWidget6QFlagsIN2Qt10WindowTypeEE
libutopia2_qt.so:_ZN6Utopia11FlowBrowserC1EP7QWidgetPK9QGLWidget6QFlagsIN2Qt10WindowTypeEE
libutopia2_qt.so:_ZN6Utopia11FlowBrowserC1ERK9QGLFormatP7QWidgetPK9QGLWidget6QFlagsIN2Qt10WindowTypeEE
libutopia2_qt.so:_ZN6Utopia11FlowBrowserC2EP10QGLContextP7QWidgetPK9QGLWidget6QFlagsIN2Qt10WindowTypeEE
libutopia2_qt.so:_ZN6Utopia11FlowBrowserC2EP7QWidgetPK9QGLWidget6QFlagsIN2Qt10WindowTypeEE
libutopia2_qt.so:_ZN6Utopia11FlowBrowserC2ERK9QGLFormatP7QWidgetPK9QGLWidget6QFlagsIN2Qt10WindowTypeEE
libutopia2_qt.so:_ZN6Utopia11FlowBrowserD0Ev
libutopia2_qt.so:_ZN6Utopia11FlowBrowserD1Ev
libutopia2_qt.so:_ZN6Utopia11FlowBrowserD2Ev
libutopia2_qt.so:_ZN6Utopia11RaiseAction11eventFilterEP7QObjectP6QEvent
libutopia2_qt.so:_ZN6Utopia11RaiseAction11qt_metacallEN11QMetaObject4CallEiPPv
libutopia2_qt.so:_ZN6Utopia11RaiseAction11qt_metacastEPKc
libutopia2_qt.so:_ZN6Utopia11RaiseAction5raiseEv
libutopia2_qt.so:_ZN6Utopia11RaiseActionC1EP7QWidgetP7QObject
libutopia2_qt.so:_ZN6Utopia11RaiseActionC2EP7QWidgetP7QObject
libutopia2_qt.so:_ZN6Utopia11RaiseActionD0Ev
libutopia2_qt.so:_ZN6Utopia11RaiseActionD1Ev
libutopia2_qt.so:_ZN6Utopia11RaiseActionD2Ev
libutopia2_qt.so:_ZN6Utopia11SlideLayout11qt_metacallEN11QMetaObject4CallEiPPv
libutopia2_qt.so:_ZN6Utopia11SlideLayout11qt_metacastEPKc
libutopia2_qt.so:_ZN6Utopia11SlideLayout11setGeometryERK5QRect
libutopia2_qt.so:_ZN6Utopia11SlideLayout13widgetChangedEP7QWidget
libutopia2_qt.so:_ZN6Utopia11SlideLayout16setSlideDurationEi
libutopia2_qt.so:_ZN6Utopia11SlideLayout17setUpdateIntervalEi
libutopia2_qt.so:_ZN6Utopia11SlideLayout3popEb
libutopia2_qt.so:_ZN6Utopia11SlideLayout4pushEP7QWidgetb
libutopia2_qt.so:_ZN6Utopia11SlideLayout4pushERK7QStringb
libutopia2_qt.so:_ZN6Utopia11SlideLayout6takeAtEi
libutopia2_qt.so:_ZN6Utopia11SlideLayout7addItemEP11QLayoutItem
libutopia2_qt.so:_ZN6Utopia11SlideLayout8animatedEv
libutopia2_qt.so:_ZN6Utopia11SlideLayout9addWidgetEP7QWidgetRK7QString
libutopia2_qt.so:_ZN6Utopia11SlideLayoutC1ENS0_14StackDirectionE
libutopia2_qt.so:_ZN6Utopia11SlideLayoutC1ENS0_14StackDirectionEP7QWidget
libutopia2_qt.so:_ZN6Utopia11SlideLayoutC1EP7QWidget
libutopia2_qt.so:_ZN6Utopia11SlideLayoutC1Ev
libutopia2_qt.so:_ZN6Utopia11SlideLayoutC2ENS0_14StackDirectionE
libutopia2_qt.so:_ZN6Utopia11SlideLayoutC2ENS0_14StackDirectionEP7QWidget
libutopia2_qt.so:_ZN6Utopia11SlideLayoutC2EP7QWidget
libutopia2_qt.so:_ZN6Utopia11SlideLayoutC2Ev
libutopia2_qt.so:_ZN6Utopia12BubbleDialog11qt_metacallEN11QMetaObject4CallEiPPv
libutopia2_qt.so:_ZN6Utopia12BubbleDialog11qt_metacastEPKc
libutopia2_qt.so:_ZN6Utopia12BubbleWidget11qt_metacallEN11QMetaObject4CallEiPPv
libutopia2_qt.so:_ZN6Utopia12BubbleWidget11qt_metacastEPKc
libutopia2_qt.so:_ZN6Utopia12ImageDropper10enterEventEP6QEvent
libutopia2_qt.so:_ZN6Utopia12ImageDropper10leaveEventEP6QEvent
libutopia2_qt.so:_ZN6Utopia12ImageDropper10paintEventEP11QPaintEvent
libutopia2_qt.so:_ZN6Utopia12ImageDropper11qt_metacallEN11QMetaObject4CallEiPPv
libutopia2_qt.so:_ZN6Utopia12ImageDropper11qt_metacastEPKc
libutopia2_qt.so:_ZN6Utopia12ImageDropper11updateImageEv
libutopia2_qt.so:_ZN6Utopia12ImageDropper14dragEnterEventEP15QDragEnterEvent
libutopia2_qt.so:_ZN6Utopia12ImageDropper14dragLeaveEventEP15QDragLeaveEvent
libutopia2_qt.so:_ZN6Utopia12ImageDropper17setPixmapManuallyERK7QPixmap
libutopia2_qt.so:_ZN6Utopia12ImageDropper9dropEventEP10QDropEvent
libutopia2_qt.so:_ZN6Utopia12ImageDropper9setPixmapERK7QPixmap
libutopia2_qt.so:_ZN6Utopia12ImageDropperC1EP7QWidget
libutopia2_qt.so:_ZN6Utopia12ImageDropperC2EP7QWidget
libutopia2_qt.so:_ZN6Utopia12ImagePreview11qt_metacallEN11QMetaObject4CallEiPPv
libutopia2_qt.so:_ZN6Utopia12ImagePreview11qt_metacastEPKc
libutopia2_qt.so:_ZN6Utopia12ImagePreview11resizeEventEP12QResizeEvent
libutopia2_qt.so:_ZN6Utopia12ImagePreview9setPixmapERK7QPixmap
libutopia2_qt.so:_ZN6Utopia12ImagePreviewC1EP7QWidget
libutopia2_qt.so:_ZN6Utopia12ImagePreviewC2EP7QWidget
libutopia2_qt.so:_ZN6Utopia12ImagePreviewD0Ev
libutopia2_qt.so:_ZN6Utopia12ImagePreviewD1Ev
libutopia2_qt.so:_ZN6Utopia12ImagePreviewD2Ev
libutopia2_qt.so:_ZN6Utopia12MessageLabel11qt_metacallEN11QMetaObject4CallEiPPv
libutopia2_qt.so:_ZN6Utopia12MessageLabel11qt_metacastEPKc
libutopia2_qt.so:_ZN6Utopia12MessageLabel11setInfoTextERK7QStringb
libutopia2_qt.so:_ZN6Utopia12MessageLabel11updateStackEi
libutopia2_qt.so:_ZN6Utopia12MessageLabel6updateEv
libutopia2_qt.so:_ZN6Utopia12MessageLabelC1EP7QWidget
libutopia2_qt.so:_ZN6Utopia12MessageLabelC2EP7QWidget
libutopia2_qt.so:_ZN6Utopia12SpeechBubble10paintEventEP11QPaintEvent
libutopia2_qt.so:_ZN6Utopia12SpeechBubble11qt_metacallEN11QMetaObject4CallEiPPv
libutopia2_qt.so:_ZN6Utopia12SpeechBubble11qt_metacastEPKc
libutopia2_qt.so:_ZN6Utopia12SpeechBubbleC1EP7QWidgetb
libutopia2_qt.so:_ZN6Utopia12SpeechBubbleC2EP7QWidgetb
libutopia2_qt.so:_ZN6Utopia12SplashScreen11qt_metacallEN11QMetaObject4CallEiPPv
libutopia2_qt.so:_ZN6Utopia12SplashScreen11qt_metacastEPKc
libutopia2_qt.so:_ZN6Utopia12SplashScreen12drawContentsEP8QPainter
libutopia2_qt.so:_ZN6Utopia12SplashScreen13changeMessageERK7QString
libutopia2_qt.so:_ZN6Utopia12SplashScreen13changeMessageERK7QStringiRK6QColor
libutopia2_qt.so:_ZN6Utopia12SplashScreen15setDefaultColorERK6QColor
libutopia2_qt.so:_ZN6Utopia12SplashScreen19setDefaultAlignmentEi
libutopia2_qt.so:_ZN6Utopia12SplashScreenC1EP7QWidgetRK7QPixmap6QFlagsIN2Qt10WindowTypeEE
libutopia2_qt.so:_ZN6Utopia12SplashScreenC1ERK7QPixmap6QFlagsIN2Qt10WindowTypeEE
libutopia2_qt.so:_ZN6Utopia12SplashScreenC2EP7QWidgetRK7QPixmap6QFlagsIN2Qt10WindowTypeEE
libutopia2_qt.so:_ZN6Utopia12SplashScreenC2ERK7QPixmap6QFlagsIN2Qt10WindowTypeEE
libutopia2_qt.so:_ZN6Utopia12UpdateWidget11qt_metacallEN11QMetaObject4CallEiPPv
libutopia2_qt.so:_ZN6Utopia12UpdateWidget11qt_metacastEPKc
libutopia2_qt.so:_ZN6Utopia12UpdateWidget4skipEv
libutopia2_qt.so:_ZN6Utopia12UpdateWidget5checkEv
libutopia2_qt.so:_ZN6Utopia12UpdateWidget8finishedEv
libutopia2_qt.so:_ZN6Utopia12UpdateWidgetC1EP7QWidget6QFlagsIN2Qt10WindowTypeEE
libutopia2_qt.so:_ZN6Utopia12UpdateWidgetC2EP7QWidget6QFlagsIN2Qt10WindowTypeEE
libutopia2_qt.so:_ZN6Utopia12UpdateWidgetD0Ev
libutopia2_qt.so:_ZN6Utopia12UpdateWidgetD1Ev
libutopia2_qt.so:_ZN6Utopia12UpdateWidgetD2Ev
libutopia2_qt.so:_ZN6Utopia12hiDPIScalingEv
libutopia2_qt.so:_ZN6Utopia13HeadUpDisplay10enterEventEP6QEvent
libutopia2_qt.so:_ZN6Utopia13HeadUpDisplay10leaveEventEP6QEvent
libutopia2_qt.so:_ZN6Utopia13HeadUpDisplay10paintEventEP11QPaintEvent
libutopia2_qt.so:_ZN6Utopia13HeadUpDisplay11eventFilterEP7QObjectP6QEvent
libutopia2_qt.so:_ZN6Utopia13HeadUpDisplay11qt_metacallEN11QMetaObject4CallEiPPv
libutopia2_qt.so:_ZN6Utopia13HeadUpDisplay11qt_metacastEPKc
libutopia2_qt.so:_ZN6Utopia13HeadUpDisplay15mousePressEventEP11QMouseEvent
libutopia2_qt.so:_ZN6Utopia13HeadUpDisplay17visibilityToggledEb
libutopia2_qt.so:_ZN6Utopia13HeadUpDisplay5hoverEb
libutopia2_qt.so:_ZN6Utopia13HeadUpDisplayC1EP7QWidget6QFlagsIN2Qt10WindowTypeEE
libutopia2_qt.so:_ZN6Utopia13HeadUpDisplayC2EP7QWidget6QFlagsIN2Qt10WindowTypeEE
libutopia2_qt.so:_ZN6Utopia13HeadUpDisplayD0Ev
libutopia2_qt.so:_ZN6Utopia13HeadUpDisplayD1Ev
libutopia2_qt.so:_ZN6Utopia13HeadUpDisplayD2Ev
libutopia2_qt.so:_ZN6Utopia13RoundedPixmap10paintEventEP11QPaintEvent
libutopia2_qt.so:_ZN6Utopia13ShimmerWidget10paintEventEP11QPaintEvent
libutopia2_qt.so:_ZN6Utopia13ShimmerWidget10startPulseEv
libutopia2_qt.so:_ZN6Utopia13ShimmerWidget10stopRippleEv
libutopia2_qt.so:_ZN6Utopia13ShimmerWidget11qt_metacallEN11QMetaObject4CallEiPPv
libutopia2_qt.so:_ZN6Utopia13ShimmerWidget11qt_metacastEPKc
libutopia2_qt.so:_ZN6Utopia13ShimmerWidget11sizeChangedEv
libutopia2_qt.so:_ZN6Utopia13ShimmerWidget11startRippleEv
libutopia2_qt.so:_ZN6Utopia13ShimmerWidget12startShimmerEv
libutopia2_qt.so:_ZN6Utopia13ShimmerWidgetC1EP7QWidget
libutopia2_qt.so:_ZN6Utopia13ShimmerWidgetC2EP7QWidget
libutopia2_qt.so:_ZN6Utopia13SlaveSplitter11qt_metacallEN11QMetaObject4CallEiPPv
libutopia2_qt.so:_ZN6Utopia13SlaveSplitter11qt_metacastEPKc
libutopia2_qt.so:_ZN6Utopia13SlaveSplitter11unsetMasterEP15QSplitterHandleP7QWidget
libutopia2_qt.so:_ZN6Utopia13SlaveSplitter11unsetMasterEiP7QWidget
libutopia2_qt.so:_ZN6Utopia13SlaveSplitter12createHandleEv
libutopia2_qt.so:_ZN6Utopia13SlaveSplitter9setMasterEP15QSplitterHandleP7QWidget
libutopia2_qt.so:_ZN6Utopia13SlaveSplitter9setMasterEiP7QWidget
libutopia2_qt.so:_ZN6Utopia13SlaveSplitterC1EN2Qt11OrientationEP7QWidget
libutopia2_qt.so:_ZN6Utopia13SlaveSplitterC1EP7QWidget
libutopia2_qt.so:_ZN6Utopia13SlaveSplitterC2EN2Qt11OrientationEP7QWidget
libutopia2_qt.so:_ZN6Utopia13SlaveSplitterC2EP7QWidget
libutopia2_qt.so:_ZN6Utopia13ThoughtBubble10paintEventEP11QPaintEvent
libutopia2_qt.so:_ZN6Utopia13ThoughtBubble11qt_metacallEN11QMetaObject4CallEiPPv
libutopia2_qt.so:_ZN6Utopia13ThoughtBubble11qt_metacastEPKc
libutopia2_qt.so:_ZN6Utopia13ThoughtBubbleC1EP7QWidgetb
libutopia2_qt.so:_ZN6Utopia13ThoughtBubbleC2EP7QWidgetb
libutopia2_qt.so:_ZN6Utopia13maxScreenSizeEb
libutopia2_qt.so:_ZN6Utopia13retinaScalingEv
libutopia2_qt.so:_ZN6Utopia14AbstractWidget11qt_metacallEN11QMetaObject4CallEiPPv
libutopia2_qt.so:_ZN6Utopia14AbstractWidget11qt_metacastEPKc
libutopia2_qt.so:_ZN6Utopia14AbstractWidgetC2Ev
libutopia2_qt.so:_ZN6Utopia14AbstractWindow11qt_metacallEN11QMetaObject4CallEiPPv
libutopia2_qt.so:_ZN6Utopia14AbstractWindow11qt_metacastEPKc
libutopia2_qt.so:_ZN6Utopia14AbstractWindow15newWindowOpenedEPS0_
libutopia2_qt.so:_ZN6Utopia14AbstractWindow16fileImportActionEv
libutopia2_qt.so:_ZN6Utopia14AbstractWindow19fileImportAllActionEv
libutopia2_qt.so:_ZN6Utopia14AbstractWindow19requestAddToLibraryE4QUrl
libutopia2_qt.so:_ZN6Utopia14AbstractWindow19windowLibraryActionEv
libutopia2_qt.so:_ZN6Utopia14AbstractWindow4initEv
libutopia2_qt.so:_ZN6Utopia14AbstractWindow7closingE11QModelIndex
libutopia2_qt.so:_ZN6Utopia14AbstractWindow7closingEPS0_
libutopia2_qt.so:_ZN6Utopia14AbstractWindow8setIndexE11QModelIndex
libutopia2_qt.so:_ZN6Utopia14AbstractWindow8setModelEPNS_4NodeE
libutopia2_qt.so:_ZN6Utopia14AbstractWindowC1EP7QWidget6QFlagsIN2Qt10WindowTypeEE
libutopia2_qt.so:_ZN6Utopia14AbstractWindowC1EPNS_21AbstractWindowPrivateEP7QWidget6QFlagsIN2Qt10WindowTypeEE
libutopia2_qt.so:_ZN6Utopia14AbstractWindowC2EP7QWidget6QFlagsIN2Qt10WindowTypeEE
libutopia2_qt.so:_ZN6Utopia14AbstractWindowC2EPNS_21AbstractWindowPrivateEP7QWidget6QFlagsIN2Qt10WindowTypeEE
libutopia2_qt.so:_ZN6Utopia14AbstractWindowD0Ev
libutopia2_qt.so:_ZN6Utopia14AbstractWindowD1Ev
libutopia2_qt.so:_ZN6Utopia14AbstractWindowD2Ev
libutopia2_qt.so:_ZN6Utopia14EmbeddedWidget10initialiseEPNS_4NodeE
libutopia2_qt.so:_ZN6Utopia14EmbeddedWidget11qt_metacallEN11QMetaObject4CallEiPPv
libutopia2_qt.so:_ZN6Utopia14EmbeddedWidget11qt_metacastEPKc
libutopia2_qt.so:_ZN6Utopia14EmbeddedWidget4loadEPNS_4NodeE
libutopia2_qt.so:_ZN6Utopia14EmbeddedWidget5hoverEb
libutopia2_qt.so:_ZN6Utopia14EmbeddedWidget8showDataEb
libutopia2_qt.so:_ZN6Utopia14EmbeddedWidgetC1EP7QWidget6QFlagsIN2Qt10WindowTypeEE
libutopia2_qt.so:_ZN6Utopia14EmbeddedWidgetC1EPNS_4NodeEP7QWidget6QFlagsIN2Qt10WindowTypeEE
libutopia2_qt.so:_ZN6Utopia14EmbeddedWidgetC2EP7QWidget6QFlagsIN2Qt10WindowTypeEE
libutopia2_qt.so:_ZN6Utopia14EmbeddedWidgetC2EPNS_4NodeEP7QWidget6QFlagsIN2Qt10WindowTypeEE
libutopia2_qt.so:_ZN6Utopia14EmbeddedWidgetD0Ev
libutopia2_qt.so:_ZN6Utopia14EmbeddedWidgetD1Ev
libutopia2_qt.so:_ZN6Utopia14EmbeddedWidgetD2Ev
libutopia2_qt.so:_ZN6Utopia14HoldableButton11qt_metacallEN11QMetaObject4CallEiPPv
libutopia2_qt.so:_ZN6Utopia14HoldableButton11qt_metacastEPKc
libutopia2_qt.so:_ZN6Utopia14HoldableButton15mousePressEventEP11QMouseEvent
libutopia2_qt.so:_ZN6Utopia14HoldableButton15setHoldIntervalEi
libutopia2_qt.so:_ZN6Utopia14HoldableButton17mouseReleaseEventEP11QMouseEvent
libutopia2_qt.so:_ZN6Utopia14HoldableButton4heldEv
libutopia2_qt.so:_ZN6Utopia14HoldableButtonC1EP7QWidget
libutopia2_qt.so:_ZN6Utopia14HoldableButtonC2EP7QWidget
libutopia2_qt.so:_ZN6Utopia14ProgressDialog11qt_metacallEN11QMetaObject4CallEiPPv
libutopia2_qt.so:_ZN6Utopia14ProgressDialog11qt_metacastEPKc
libutopia2_qt.so:_ZN6Utopia14ProgressDialog11setProgressEd
libutopia2_qt.so:_ZN6Utopia14ProgressDialog11setProgressExx
libutopia2_qt.so:_ZN6Utopia14ProgressDialog18setMinimumDurationEi
libutopia2_qt.so:_ZN6Utopia14ProgressDialog4stopEv
libutopia2_qt.so:_ZN6Utopia14ProgressDialog5startEv
libutopia2_qt.so:_ZN6Utopia14ProgressDialog7setTextERK7QString
libutopia2_qt.so:_ZN6Utopia14ProgressDialogC1ERK7QStringP7QWidget6QFlagsIN2Qt10WindowTypeEE
libutopia2_qt.so:_ZN6Utopia14ProgressDialogC2ERK7QStringP7QWidget6QFlagsIN2Qt10WindowTypeEE
libutopia2_qt.so:_ZN6Utopia14ProgressDialogD0Ev
libutopia2_qt.so:_ZN6Utopia14ProgressDialogD1Ev
libutopia2_qt.so:_ZN6Utopia14ProgressDialogD2Ev
libutopia2_qt.so:_ZN6Utopia14maxScreenWidthEb
libutopia2_qt.so:_ZN6Utopia15FileFixerDialog11qt_metacallEN11QMetaObject4CallEiPPv
libutopia2_qt.so:_ZN6Utopia15FileFixerDialog11qt_metacastEPKc
libutopia2_qt.so:_ZN6Utopia15FileFixerDialog4goToERK11QModelIndex
libutopia2_qt.so:_ZN6Utopia15FileFixerDialog5retryEv
libutopia2_qt.so:_ZN6Utopia15FileFixerDialogC1ENS_6Parser7ContextERK7QStringPNS_10FileFormatE6QFlagsINS0_16ExportPolicyFlagEE
libutopia2_qt.so:_ZN6Utopia15FileFixerDialogC2ENS_6Parser7ContextERK7QStringPNS_10FileFormatE6QFlagsINS0_16ExportPolicyFlagEE
libutopia2_qt.so:_ZN6Utopia15FileFixerDialogD0Ev
libutopia2_qt.so:_ZN6Utopia15FileFixerDialogD1Ev
libutopia2_qt.so:_ZN6Utopia15FileFixerDialogD2Ev
libutopia2_qt.so:_ZN6Utopia15FlowBrowserItem11bindTextureERK6QImage
libutopia2_qt.so:_ZN6Utopia15FlowBrowserItem11qt_metacallEN11QMetaObject4CallEiPPv
libutopia2_qt.so:_ZN6Utopia15FlowBrowserItem11qt_metacastEPKc
libutopia2_qt.so:_ZN6Utopia15FlowBrowserItem13deleteTextureEv
libutopia2_qt.so:_ZN6Utopia15FlowBrowserItem8setImageERK6QImage
libutopia2_qt.so:_ZN6Utopia15FlowBrowserItemC1EP9QGLWidget8QVariant
libutopia2_qt.so:_ZN6Utopia15FlowBrowserItemC2EP9QGLWidget8QVariant
libutopia2_qt.so:_ZN6Utopia15FlowBrowserItemD0Ev
libutopia2_qt.so:_ZN6Utopia15FlowBrowserItemD1Ev
libutopia2_qt.so:_ZN6Utopia15FlowBrowserItemD2Ev
libutopia2_qt.so:_ZN6Utopia15PreferencesPane11qt_metacallEN11QMetaObject4CallEiPPv
libutopia2_qt.so:_ZN6Utopia15PreferencesPane11qt_metacastEPKc
libutopia2_qt.so:_ZN6Utopia15PreferencesPane11setModifiedEb
libutopia2_qt.so:_ZN6Utopia15PreferencesPane15modifiedChangedEb
libutopia2_qt.so:_ZN6Utopia15PreferencesPane15setErrorMessageERK7QString
libutopia2_qt.so:_ZN6Utopia15PreferencesPane4showERK8QVariant
libutopia2_qt.so:_ZN6Utopia15PreferencesPane5applyEv
libutopia2_qt.so:_ZN6Utopia15PreferencesPane7discardEv
libutopia2_qt.so:_ZN6Utopia15PreferencesPaneC2EP7QWidget6QFlagsIN2Qt10WindowTypeEE
libutopia2_qt.so:_ZN6Utopia15PreferencesPaneD0Ev
libutopia2_qt.so:_ZN6Utopia15PreferencesPaneD1Ev
libutopia2_qt.so:_ZN6Utopia15PreferencesPaneD2Ev
libutopia2_qt.so:_ZN6Utopia15getOpenFileNameEP7QWidgetRK7QStringS4_i6QFlagsIN11QFileDialog6OptionEE
libutopia2_qt.so:_ZN6Utopia15getOpenFileNameEPNS_10FileFormatEP7QWidgetRK7QStringS6_6QFlagsIN11QFileDialog6OptionEE
libutopia2_qt.so:_ZN6Utopia15getSaveFileNameEP7QWidgetRK7QStringS4_6QFlagsIN11QFileDialog6OptionEE
libutopia2_qt.so:_ZN6Utopia15maxScreenHeightEb
libutopia2_qt.so:_ZN6Utopia16FileFormatDialog11qt_metacallEN11QMetaObject4CallEiPPv
libutopia2_qt.so:_ZN6Utopia16FileFormatDialog11qt_metacastEPKc
libutopia2_qt.so:_ZN6Utopia16FileFormatDialog4initERK4QSetIPNS_10FileFormatEE
libutopia2_qt.so:_ZN6Utopia16FileFormatDialog8populateEP9QIODevice
libutopia2_qt.so:_ZN6Utopia16FileFormatDialogC1EP9QIODevicei
libutopia2_qt.so:_ZN6Utopia16FileFormatDialogC1ERK7QStringi
libutopia2_qt.so:_ZN6Utopia16FileFormatDialogC2EP9QIODevicei
libutopia2_qt.so:_ZN6Utopia16FileFormatDialogC2ERK7QStringi
libutopia2_qt.so:_ZN6Utopia16FileFormatDialogD0Ev
libutopia2_qt.so:_ZN6Utopia16FileFormatDialogD1Ev
libutopia2_qt.so:_ZN6Utopia16FileFormatDialogD2Ev
libutopia2_qt.so:_ZN6Utopia16FlowBrowserModel11lastIndexOfERK8QVarianti
libutopia2_qt.so:_ZN6Utopia16FlowBrowserModel11qt_metacallEN11QMetaObject4CallEiPPv
libutopia2_qt.so:_ZN6Utopia16FlowBrowserModel11qt_metacastEPKc
libutopia2_qt.so:_ZN6Utopia16FlowBrowserModel13adjustCurrentEii
libutopia2_qt.so:_ZN6Utopia16FlowBrowserModel13requestUpdateEi
libutopia2_qt.so:_ZN6Utopia16FlowBrowserModel14requiresUpdateEi
libutopia2_qt.so:_ZN6Utopia16FlowBrowserModel16emptinessChangedEb
libutopia2_qt.so:_ZN6Utopia16FlowBrowserModel18setBackgroundColorERK6QColor
libutopia2_qt.so:_ZN6Utopia16FlowBrowserModel4goToEi
libutopia2_qt.so:_ZN6Utopia16FlowBrowserModel4nextEi
libutopia2_qt.so:_ZN6Utopia16FlowBrowserModel5clearEv
libutopia2_qt.so:_ZN6Utopia16FlowBrowserModel6appendERK8QVariant
libutopia2_qt.so:_ZN6Utopia16FlowBrowserModel6appendERK8QVariantRK6QImage
libutopia2_qt.so:_ZN6Utopia16FlowBrowserModel6insertEiRK8QVariant
libutopia2_qt.so:_ZN6Utopia16FlowBrowserModel6insertEiRK8QVariantRK6QImage
libutopia2_qt.so:_ZN6Utopia16FlowBrowserModel6updateEiRK6QImage
libutopia2_qt.so:_ZN6Utopia16FlowBrowserModel7indexOfERK8QVarianti
libutopia2_qt.so:_ZN6Utopia16FlowBrowserModel7prependERK8QVariant
libutopia2_qt.so:_ZN6Utopia16FlowBrowserModel7prependERK8QVariantRK6QImage
libutopia2_qt.so:_ZN6Utopia16FlowBrowserModel7updatedEv
libutopia2_qt.so:_ZN6Utopia16FlowBrowserModel8previousEi
libutopia2_qt.so:_ZN6Utopia16FlowBrowserModel8removeAtEi
libutopia2_qt.so:_ZN6Utopia16FlowBrowserModel8selectedEi
libutopia2_qt.so:_ZN6Utopia16FlowBrowserModel8setTitleERK7QString
libutopia2_qt.so:_ZN6Utopia16FlowBrowserModelC1EPNS_11FlowBrowserERK7QString
libutopia2_qt.so:_ZN6Utopia16FlowBrowserModelC2EPNS_11FlowBrowserERK7QString
libutopia2_qt.so:_ZN6Utopia16MenuProxyPrivate11eventFilterEP7QObjectP6QEvent
libutopia2_qt.so:_ZN6Utopia16MenuProxyPrivate11qt_metacallEN11QMetaObject4CallEiPPv
libutopia2_qt.so:_ZN6Utopia16MenuProxyPrivate11qt_metacastEPKc
libutopia2_qt.so:_ZN6Utopia16MenuProxyPrivateC1EPNS_9MenuProxyE
libutopia2_qt.so:_ZN6Utopia16MenuProxyPrivateC2EPNS_9MenuProxyE
libutopia2_qt.so:_ZN6Utopia16ThumbnailChooser10paintEventEP11QPaintEvent
libutopia2_qt.so:_ZN6Utopia16ThumbnailChooser11qt_metacallEN11QMetaObject4CallEiPPv
libutopia2_qt.so:_ZN6Utopia16ThumbnailChooser11qt_metacastEPKc
libutopia2_qt.so:_ZN6Utopia16ThumbnailChooser11resizeEventEP12QResizeEvent
libutopia2_qt.so:_ZN6Utopia16ThumbnailChooser11setCropRectERK6QRectF
libutopia2_qt.so:_ZN6Utopia16ThumbnailChooser12setClampZoomEb
libutopia2_qt.so:_ZN6Utopia16ThumbnailChooser13setHandleSizeEi
libutopia2_qt.so:_ZN6Utopia16ThumbnailChooser14mouseMoveEventEP11QMouseEvent
libutopia2_qt.so:_ZN6Utopia16ThumbnailChooser14setSourceImageERK7QPixmap
libutopia2_qt.so:_ZN6Utopia16ThumbnailChooser15mousePressEventEP11QMouseEvent
libutopia2_qt.so:_ZN6Utopia16ThumbnailChooser15setControlColorERK6QColor
libutopia2_qt.so:_ZN6Utopia16ThumbnailChooser16setSmoothUpdatesEb
libutopia2_qt.so:_ZN6Utopia16ThumbnailChooser16setThumbnailSizeERK5QSize
libutopia2_qt.so:_ZN6Utopia16ThumbnailChooser16thumbnailChangedEv
libutopia2_qt.so:_ZN6Utopia16ThumbnailChooser16thumbnailPreviewEv
libutopia2_qt.so:_ZN6Utopia16ThumbnailChooser17mouseReleaseEventEP11QMouseEvent
libutopia2_qt.so:_ZN6Utopia16ThumbnailChooser18setBackgroundColorERK6QColor
libutopia2_qt.so:_ZN6Utopia16ThumbnailChooser20thumbnailSizeChangedERK5QSize
libutopia2_qt.so:_ZN6Utopia16ThumbnailChooser21mouseDoubleClickEventEP11QMouseEvent
libutopia2_qt.so:_ZN6Utopia16ThumbnailChooser4initEv
libutopia2_qt.so:_ZN6Utopia16ThumbnailChooser5eventEP6QEvent
libutopia2_qt.so:_ZN6Utopia16ThumbnailChooser7setZoomEd
libutopia2_qt.so:_ZN6Utopia16ThumbnailChooserC1EP7QWidget6QFlagsIN2Qt10WindowTypeEE
libutopia2_qt.so:_ZN6Utopia16ThumbnailChooserC1ERK7QPixmapRK5QSizeP7QWidget6QFlagsIN2Qt10WindowTypeEE
libutopia2_qt.so:_ZN6Utopia16ThumbnailChooserC2EP7QWidget6QFlagsIN2Qt10WindowTypeEE
libutopia2_qt.so:_ZN6Utopia16ThumbnailChooserC2ERK7QPixmapRK5QSizeP7QWidget6QFlagsIN2Qt10WindowTypeEE
libutopia2_qt.so:_ZN6Utopia16ThumbnailChooserD0Ev
libutopia2_qt.so:_ZN6Utopia16ThumbnailChooserD1Ev
libutopia2_qt.so:_ZN6Utopia16ThumbnailChooserD2Ev
libutopia2_qt.so:_ZN6Utopia16ThumbnailPreview11qt_metacallEN11QMetaObject4CallEiPPv
libutopia2_qt.so:_ZN6Utopia16ThumbnailPreview11qt_metacastEPKc
libutopia2_qt.so:_ZN6Utopia16ThumbnailPreview14mouseMoveEventEP11QMouseEvent
libutopia2_qt.so:_ZN6Utopia16ThumbnailPreview15mousePressEventEP11QMouseEvent
libutopia2_qt.so:_ZN6Utopia16ThumbnailPreview15updateThumbnailEv
libutopia2_qt.so:_ZN6Utopia16ThumbnailPreview17mouseReleaseEventEP11QMouseEvent
libutopia2_qt.so:_ZN6Utopia16ThumbnailPreview5eventEP6QEvent
libutopia2_qt.so:_ZN6Utopia16ThumbnailPreviewC1EPNS_16ThumbnailChooserEP7QWidget6QFlagsIN2Qt10WindowTypeEE
libutopia2_qt.so:_ZN6Utopia16ThumbnailPreviewC2EPNS_16ThumbnailChooserEP7QWidget6QFlagsIN2Qt10WindowTypeEE
libutopia2_qt.so:_ZN6Utopia16ThumbnailPreviewD0Ev
libutopia2_qt.so:_ZN6Utopia16ThumbnailPreviewD1Ev
libutopia2_qt.so:_ZN6Utopia16ThumbnailPreviewD2Ev
libutopia2_qt.so:_ZN6Utopia16UIManagerPrivate11qt_metacallEN11QMetaObject4CallEiPPv
libutopia2_qt.so:_ZN6Utopia16UIManagerPrivate11qt_metacastEPKc
libutopia2_qt.so:_ZN6Utopia16UIManagerPrivateC1EP7QObject
libutopia2_qt.so:_ZN6Utopia16UIManagerPrivateC2EP7QObject
libutopia2_qt.so:_ZN6Utopia16UIManagerPrivateD0Ev
libutopia2_qt.so:_ZN6Utopia16UIManagerPrivateD1Ev
libutopia2_qt.so:_ZN6Utopia16UIManagerPrivateD2Ev
libutopia2_qt.so:_ZN6Utopia17PreferencesDialog11qt_metacallEN11QMetaObject4CallEiPPv
libutopia2_qt.so:_ZN6Utopia17PreferencesDialog11qt_metacastEPKc
libutopia2_qt.so:_ZN6Utopia17PreferencesDialog21requestModifiedActionERK7QStringP7QWidget
libutopia2_qt.so:_ZN6Utopia17PreferencesDialog8instanceEv
libutopia2_qt.so:_ZN6Utopia17PreferencesDialog9focusPaneERK7QStringRK8QVariant
libutopia2_qt.so:_ZN6Utopia17PreferencesDialogC1EP7QWidget6QFlagsIN2Qt10WindowTypeEE
libutopia2_qt.so:_ZN6Utopia17PreferencesDialogC2EP7QWidget6QFlagsIN2Qt10WindowTypeEE
libutopia2_qt.so:_ZN6Utopia17PreferencesDialogD0Ev
libutopia2_qt.so:_ZN6Utopia17PreferencesDialogD1Ev
libutopia2_qt.so:_ZN6Utopia17PreferencesDialogD2Ev
libutopia2_qt.so:_ZN6Utopia17getExportFileNameEP7QWidgetRK7QStringS4_i6QFlagsIN11QFileDialog6OptionEE
libutopia2_qt.so:_ZN6Utopia17getExportFileNameEPNS_10FileFormatEP7QWidgetRK7QStringS6_6QFlagsIN11QFileDialog6OptionEE
libutopia2_qt.so:_ZN6Utopia18ActionProxyPrivate11qt_metacallEN11QMetaObject4CallEiPPv
libutopia2_qt.so:_ZN6Utopia18ActionProxyPrivate11qt_metacastEPKc
libutopia2_qt.so:_ZN6Utopia18ActionProxyPrivate22onProxiedActionChangedEv
libutopia2_qt.so:_ZN6Utopia18ActionProxyPrivate22onProxiedActionToggledEb
libutopia2_qt.so:_ZN6Utopia18ActionProxyPrivateC1EPNS_11ActionProxyE
libutopia2_qt.so:_ZN6Utopia18ActionProxyPrivateC2EPNS_11ActionProxyE
libutopia2_qt.so:_ZN6Utopia18FlowBrowserPrivate11qt_metacallEN11QMetaObject4CallEiPPv
libutopia2_qt.so:_ZN6Utopia18FlowBrowserPrivate11qt_metacastEPKc
libutopia2_qt.so:_ZN6Utopia18FlowBrowserPrivate11removeModelEP7QObject
libutopia2_qt.so:_ZN6Utopia18FlowBrowserPrivate6renderEb
libutopia2_qt.so:_ZN6Utopia18FlowBrowserPrivate6resizeEii
libutopia2_qt.so:_ZN6Utopia18FlowBrowserPrivateC1EPNS_11FlowBrowserE
libutopia2_qt.so:_ZN6Utopia18FlowBrowserPrivateC2EPNS_11FlowBrowserE
libutopia2_qt.so:_ZN6Utopia18ImageFormatManager11qt_metacallEN11QMetaObject4CallEiPPv
libutopia2_qt.so:_ZN6Utopia18ImageFormatManager11qt_metacastEPKc
libutopia2_qt.so:_ZN6Utopia18ImageFormatManager12urlSupportedERK4QUrl
libutopia2_qt.so:_ZN6Utopia18ImageFormatManager13loadImageFileEP7QWidgetRK7QString
libutopia2_qt.so:_ZN6Utopia18ImageFormatManager13saveImageFileEP7QWidgetRK7QStringRK7QPixmapS5_
libutopia2_qt.so:_ZN6Utopia18ImageFormatManager16setExportQualityEi
libutopia2_qt.so:_ZN6Utopia18ImageFormatManager17mimeDataSupportedEPK9QMimeData
libutopia2_qt.so:_ZN6Utopia18ImageFormatManager20exportQualityChangedEi
libutopia2_qt.so:_ZN6Utopia18ImageFormatManager22setDefaultExportFormatERK7QString
libutopia2_qt.so:_ZN6Utopia18ImageFormatManager26defaultExportFormatChangedERK7QString
libutopia2_qt.so:_ZN6Utopia18ImageFormatManager8instanceEv
libutopia2_qt.so:_ZN6Utopia18ImageFormatManagerC1Ev
libutopia2_qt.so:_ZN6Utopia18ImageFormatManagerC2Ev
libutopia2_qt.so:_ZN6Utopia18ImageFormatManagerD0Ev
libutopia2_qt.so:_ZN6Utopia18ImageFormatManagerD1Ev
libutopia2_qt.so:_ZN6Utopia18ImageFormatManagerD2Ev
libutopia2_qt.so:_ZN6Utopia18ParserContextModel11qt_metacallEN11QMetaObject4CallEiPPv
libutopia2_qt.so:_ZN6Utopia18ParserContextModel11qt_metacastEPKc
libutopia2_qt.so:_ZN6Utopia18ParserContextModelC1ERNS_6Parser7ContextEP7QObject
libutopia2_qt.so:_ZN6Utopia18ParserContextModelC2ERNS_6Parser7ContextEP7QObject
libutopia2_qt.so:_ZN6Utopia18ParserContextModelD0Ev
libutopia2_qt.so:_ZN6Utopia18ParserContextModelD1Ev
libutopia2_qt.so:_ZN6Utopia18ParserContextModelD2Ev
libutopia2_qt.so:_ZN6Utopia18SlideLayoutPrivate11qt_metacallEN11QMetaObject4CallEiPPv
libutopia2_qt.so:_ZN6Utopia18SlideLayoutPrivate11qt_metacastEPKc
libutopia2_qt.so:_ZN6Utopia18SlideLayoutPrivate12connectPanesEP7QWidget
libutopia2_qt.so:_ZN6Utopia18SlideLayoutPrivate13widgetChangedEP7QWidget
libutopia2_qt.so:_ZN6Utopia18SlideLayoutPrivate14startAnimationEb
libutopia2_qt.so:_ZN6Utopia18SlideLayoutPrivate17animationFinishedEv
libutopia2_qt.so:_ZN6Utopia18SlideLayoutPrivate7animateEd
libutopia2_qt.so:_ZN6Utopia18SlideLayoutPrivate8animatedEv
libutopia2_qt.so:_ZN6Utopia18SlideLayoutPrivateC1EPNS_11SlideLayoutENS1_14StackDirectionE
libutopia2_qt.so:_ZN6Utopia18SlideLayoutPrivateC2EPNS_11SlideLayoutENS1_14StackDirectionE
libutopia2_qt.so:_ZN6Utopia19ImageCroppingDialog11qt_metacallEN11QMetaObject4CallEiPPv
libutopia2_qt.so:_ZN6Utopia19ImageCroppingDialog11qt_metacastEPKc
libutopia2_qt.so:_ZN6Utopia19ImageCroppingDialog6pixmapEv
libutopia2_qt.so:_ZN6Utopia19ImageCroppingDialog8doAcceptEv
libutopia2_qt.so:_ZN6Utopia19ImageCroppingDialogC1E7QPixmapP7QWidget
libutopia2_qt.so:_ZN6Utopia19ImageCroppingDialogC2E7QPixmapP7QWidget
libutopia2_qt.so:_ZN6Utopia19SlaveSplitterHandle11eventFilterEP7QObjectP6QEvent
libutopia2_qt.so:_ZN6Utopia19SlaveSplitterHandle11qt_metacallEN11QMetaObject4CallEiPPv
libutopia2_qt.so:_ZN6Utopia19SlaveSplitterHandle11qt_metacastEPKc
libutopia2_qt.so:_ZN6Utopia19SlaveSplitterHandleC1EN2Qt11OrientationEP9QSplitter
libutopia2_qt.so:_ZN6Utopia19SlaveSplitterHandleC2EN2Qt11OrientationEP9QSplitter
libutopia2_qt.so:_ZN6Utopia19SlaveSplitterHandleD0Ev
libutopia2_qt.so:_ZN6Utopia19SlaveSplitterHandleD1Ev
libutopia2_qt.so:_ZN6Utopia19SlaveSplitterHandleD2Ev
libutopia2_qt.so:_ZN6Utopia21AbstractWindowPrivate11qt_metacallEN11QMetaObject4CallEiPPv
libutopia2_qt.so:_ZN6Utopia21AbstractWindowPrivate11qt_metacastEPKc
libutopia2_qt.so:_ZN6Utopia21AbstractWindowPrivate6windowEv
libutopia2_qt.so:_ZN6Utopia21AbstractWindowPrivateC1EPNS_14AbstractWindowE
libutopia2_qt.so:_ZN6Utopia21AbstractWindowPrivateC2EPNS_14AbstractWindowE
libutopia2_qt.so:_ZN6Utopia21AbstractWindowPrivateD0Ev
libutopia2_qt.so:_ZN6Utopia21AbstractWindowPrivateD1Ev
libutopia2_qt.so:_ZN6Utopia21AbstractWindowPrivateD2Ev
libutopia2_qt.so:_ZN6Utopia23FlowBrowserModelPrivate10onFinishedEv
libutopia2_qt.so:_ZN6Utopia23FlowBrowserModelPrivate11qt_metacallEN11QMetaObject4CallEiPPv
libutopia2_qt.so:_ZN6Utopia23FlowBrowserModelPrivate11qt_metacastEPKc
libutopia2_qt.so:_ZN6Utopia23FlowBrowserModelPrivate14onValueChangedEd
libutopia2_qt.so:_ZN6Utopia23FlowBrowserModelPrivate7updatedEv
libutopia2_qt.so:_ZN6Utopia23FlowBrowserModelPrivate9animateToEi
libutopia2_qt.so:_ZN6Utopia23FlowBrowserModelPrivateC1EP7QObjectP9QGLWidgetRK7QString
libutopia2_qt.so:_ZN6Utopia23FlowBrowserModelPrivateC2EP7QObjectP9QGLWidgetRK7QString
libutopia2_qt.so:_ZN6Utopia23FlowBrowserModelPrivateD0Ev
libutopia2_qt.so:_ZN6Utopia23FlowBrowserModelPrivateD1Ev
libutopia2_qt.so:_ZN6Utopia23FlowBrowserModelPrivateD2Ev
libutopia2_qt.so:_ZN6Utopia24PreferencesDialogPrivate11qt_metacallEN11QMetaObject4CallEiPPv
libutopia2_qt.so:_ZN6Utopia24PreferencesDialogPrivate11qt_metacastEPKc
libutopia2_qt.so:_ZN6Utopia24PreferencesDialogPrivate14onApplyClickedEv
libutopia2_qt.so:_ZN6Utopia24PreferencesDialogPrivate17onModifiedChangedEb
libutopia2_qt.so:_ZN6Utopia24PreferencesDialogPrivate20onCurrentPaneChangedEP7QWidget
libutopia2_qt.so:_ZN6Utopia24PreferencesDialogPrivate5applyEv
libutopia2_qt.so:_ZN6Utopia24PreferencesDialogPrivate7discardEv
libutopia2_qt.so:_ZN6Utopia24PreferencesDialogPrivate8onAcceptEv
libutopia2_qt.so:_ZN6Utopia24PreferencesDialogPrivate9onDiscardEv
libutopia2_qt.so:_ZN6Utopia24PreferencesDialogPrivateC1EPNS_17PreferencesDialogE
libutopia2_qt.so:_ZN6Utopia24PreferencesDialogPrivateC2EPNS_17PreferencesDialogE
libutopia2_qt.so:_ZN6Utopia26FlowBrowserItemUpdateQueue11outputReadyEv
libutopia2_qt.so:_ZN6Utopia26FlowBrowserItemUpdateQueue11qt_metacallEN11QMetaObject4CallEiPPv
libutopia2_qt.so:_ZN6Utopia26FlowBrowserItemUpdateQueue11qt_metacastEPKc
libutopia2_qt.so:_ZN6Utopia26FlowBrowserItemUpdateQueue11stopLoopingEv
libutopia2_qt.so:_ZN6Utopia26FlowBrowserItemUpdateQueue17isInputQueueEmptyEv
libutopia2_qt.so:_ZN6Utopia26FlowBrowserItemUpdateQueue18isOutputQueueEmptyEv
libutopia2_qt.so:_ZN6Utopia26FlowBrowserItemUpdateQueue18popFromOutputQueueEv
libutopia2_qt.so:_ZN6Utopia26FlowBrowserItemUpdateQueue19prependToInputQueueEPNS_15FlowBrowserItemERK6QImage
libutopia2_qt.so:_ZN6Utopia26FlowBrowserItemUpdateQueue3runEv
libutopia2_qt.so:_ZN6Utopia26FlowBrowserItemUpdateQueue6isIdleEv
libutopia2_qt.so:_ZN6Utopia26FlowBrowserItemUpdateQueue8instanceEv
libutopia2_qt.so:_ZN6Utopia26FlowBrowserItemUpdateQueue9isLoopingEv
libutopia2_qt.so:_ZN6Utopia26FlowBrowserItemUpdateQueueC1Ev
libutopia2_qt.so:_ZN6Utopia26FlowBrowserItemUpdateQueueC2Ev
libutopia2_qt.so:_ZN6Utopia26FlowBrowserItemUpdateQueueD0Ev
libutopia2_qt.so:_ZN6Utopia26FlowBrowserItemUpdateQueueD1Ev
libutopia2_qt.so:_ZN6Utopia26FlowBrowserItemUpdateQueueD2Ev
libutopia2_qt.so:_ZN6Utopia7Spinner10paintEventEP11QPaintEvent
libutopia2_qt.so:_ZN6Utopia7Spinner11qt_metacallEN11QMetaObject4CallEiPPv
libutopia2_qt.so:_ZN6Utopia7Spinner11qt_metacastEPKc
libutopia2_qt.so:_ZN6Utopia7Spinner11setAutoHideEb
libutopia2_qt.so:_ZN6Utopia7Spinner11setProgressEd
libutopia2_qt.so:_ZN6Utopia7Spinner11setProgressExx
libutopia2_qt.so:_ZN6Utopia7Spinner14runningChangedEb
libutopia2_qt.so:_ZN6Utopia7Spinner15progressChangedEd
libutopia2_qt.so:_ZN6Utopia7Spinner4stopEv
libutopia2_qt.so:_ZN6Utopia7Spinner5pauseEv
libutopia2_qt.so:_ZN6Utopia7Spinner5startEv
libutopia2_qt.so:_ZN6Utopia7Spinner7unpauseEv
libutopia2_qt.so:_ZN6Utopia7Spinner8setColorERK6QColor
libutopia2_qt.so:_ZN6Utopia7SpinnerC1EP7QWidget6QFlagsIN2Qt10WindowTypeEE
libutopia2_qt.so:_ZN6Utopia7SpinnerC2EP7QWidget6QFlagsIN2Qt10WindowTypeEE
libutopia2_qt.so:_ZN6Utopia7Tearout10paintEventEP11QPaintEvent
libutopia2_qt.so:_ZN6Utopia7Tearout11qt_metacallEN11QMetaObject4CallEiPPv
libutopia2_qt.so:_ZN6Utopia7Tearout11qt_metacastEPKc
libutopia2_qt.so:_ZN6Utopia7Tearout11resizeEventEP12QResizeEvent
libutopia2_qt.so:_ZN6Utopia7TearoutC1E7QString
libutopia2_qt.so:_ZN6Utopia7TearoutC2E7QString
libutopia2_qt.so:_ZN6Utopia7WebPage11qt_metacallEN11QMetaObject4CallEiPPv
libutopia2_qt.so:_ZN6Utopia7WebPage11qt_metacastEPKc
libutopia2_qt.so:_ZN6Utopia7WebPageC1EP7QObject
libutopia2_qt.so:_ZN6Utopia7WebPageC2EP7QObject
libutopia2_qt.so:_ZN6Utopia7WebPageD0Ev
libutopia2_qt.so:_ZN6Utopia7WebPageD1Ev
libutopia2_qt.so:_ZN6Utopia7WebPageD2Ev
libutopia2_qt.so:_ZN6Utopia7WebView11qt_metacallEN11QMetaObject4CallEiPPv
libutopia2_qt.so:_ZN6Utopia7WebView11qt_metacastEPKc
libutopia2_qt.so:_ZN6Utopia7WebView13focusOutEventEP11QFocusEvent
libutopia2_qt.so:_ZN6Utopia7WebView14onLoadFinishedEb
libutopia2_qt.so:_ZN6Utopia7WebView15userAgentForUrlERK4QUrl
libutopia2_qt.so:_ZN6Utopia7WebView16contextMenuEventEP17QContextMenuEvent
libutopia2_qt.so:_ZN6Utopia7WebView7setPageEPNS_7WebPageE
libutopia2_qt.so:_ZN6Utopia7WebView9hideEventEP10QHideEvent
libutopia2_qt.so:_ZN6Utopia7WebViewC1EP7QWidget
libutopia2_qt.so:_ZN6Utopia7WebViewC2EP7QWidget
libutopia2_qt.so:_ZN6Utopia7WebViewD0Ev
libutopia2_qt.so:_ZN6Utopia7WebViewD1Ev
libutopia2_qt.so:_ZN6Utopia7WebViewD2Ev
libutopia2_qt.so:_ZN6Utopia7isHiDPIEv
libutopia2_qt.so:_ZN6Utopia8TextEdit11qt_metacallEN11QMetaObject4CallEiPPv
libutopia2_qt.so:_ZN6Utopia8TextEdit11qt_metacastEPKc
libutopia2_qt.so:_ZN6Utopia8TextEdit13keyPressEventEP9QKeyEvent
libutopia2_qt.so:_ZN6Utopia8TextEdit6commitEv
libutopia2_qt.so:_ZN6Utopia8TextEditC1EPNS_11FieldEditorEP7QWidget
libutopia2_qt.so:_ZN6Utopia8TextEditC2EPNS_11FieldEditorEP7QWidget
libutopia2_qt.so:_ZN6Utopia8lessThanERK7QStringS2_
libutopia2_qt.so:_ZN6Utopia9MenuProxy10setProxiedEP5QMenu
libutopia2_qt.so:_ZN6Utopia9MenuProxyC1EP5QMenuP7QWidget
libutopia2_qt.so:_ZN6Utopia9MenuProxyC1EP7QWidget
libutopia2_qt.so:_ZN6Utopia9MenuProxyC1ERK7QStringP7QWidget
libutopia2_qt.so:_ZN6Utopia9MenuProxyC2EP5QMenuP7QWidget
libutopia2_qt.so:_ZN6Utopia9MenuProxyC2EP7QWidget
libutopia2_qt.so:_ZN6Utopia9MenuProxyC2ERK7QStringP7QWidget
libutopia2_qt.so:_ZN6Utopia9SlaveMenu11actionEventEP12QActionEvent
libutopia2_qt.so:_ZN6Utopia9SlaveMenu11eventFilterEP7QObjectP6QEvent
libutopia2_qt.so:_ZN6Utopia9SlaveMenu5slaveEP5QMenuP7QWidget
libutopia2_qt.so:_ZN6Utopia9SlaveMenu9setMasterEP5QMenu
libutopia2_qt.so:_ZN6Utopia9SlaveMenuC1EP7QWidget
libutopia2_qt.so:_ZN6Utopia9SlaveMenuC1ERK7QStringP7QWidget
libutopia2_qt.so:_ZN6Utopia9SlaveMenuC2EP7QWidget
libutopia2_qt.so:_ZN6Utopia9SlaveMenuC2ERK7QStringP7QWidget
libutopia2_qt.so:_ZN6Utopia9SlaveMenuD0Ev
libutopia2_qt.so:_ZN6Utopia9SlaveMenuD1Ev
libutopia2_qt.so:_ZN6Utopia9SlaveMenuD2Ev
libutopia2_qt.so:_ZN6Utopia9UIManager11qt_metacallEN11QMetaObject4CallEiPPv
libutopia2_qt.so:_ZN6Utopia9UIManager11qt_metacastEPKc
libutopia2_qt.so:_ZN6Utopia9UIManager11windowCountEv
libutopia2_qt.so:_ZN6Utopia9UIManager12removeWindowEPNS_14AbstractWindowE
libutopia2_qt.so:_ZN6Utopia9UIManager13addRecentFileE4QUrl
libutopia2_qt.so:_ZN6Utopia9UIManager13createAccountEv
libutopia2_qt.so:_ZN6Utopia9UIManager15clearRecentUrlsEv
libutopia2_qt.so:_ZN6Utopia9UIManager15showPreferencesERK7QStringRK8QVariant
libutopia2_qt.so:_ZN6Utopia9UIManager16libraryWasClosedEv
libutopia2_qt.so:_ZN6Utopia9UIManager17activateRecentUrlE4QUrl
libutopia2_qt.so:_ZN6Utopia9UIManager24relayRecentUrlActivationEv
libutopia2_qt.so:_ZN6Utopia9UIManager7openUrlERK4QUrl
libutopia2_qt.so:_ZN6Utopia9UIManager8instanceEv
libutopia2_qt.so:_ZN6Utopia9UIManager8openFileERK7QString
libutopia2_qt.so:_ZN6Utopia9UIManager8showHelpEv
libutopia2_qt.so:_ZN6Utopia9UIManager9addWindowEPNS_14AbstractWindowE
libutopia2_qt.so:_ZN6Utopia9UIManager9onMessageERK7QString
libutopia2_qt.so:_ZN6Utopia9UIManager9showAboutEv
libutopia2_qt.so:_ZN6Utopia9UIManagerC1Ev
libutopia2_qt.so:_ZN6Utopia9UIManagerC2Ev
libutopia2_qt.so:_ZN6Utopia9UIManagerD0Ev
libutopia2_qt.so:_ZN6Utopia9UIManagerD1Ev
libutopia2_qt.so:_ZN6Utopia9UIManagerD2Ev
libutopia2_qt.so:_ZNK14CombinedWidget10metaObjectEv
libutopia2_qt.so:_ZNK6Utopia11AboutDialog10metaObjectEv
libutopia2_qt.so:_ZNK6Utopia11CloseButton10metaObjectEv
libutopia2_qt.so:_ZNK6Utopia11ElidedLabel10metaObjectEv
libutopia2_qt.so:_ZNK6Utopia11ElidedLabel9elideModeEv
libutopia2_qt.so:_ZNK6Utopia11EmptyButton10metaObjectEv
libutopia2_qt.so:_ZNK6Utopia11FieldEditor10metaObjectEv
libutopia2_qt.so:_ZNK6Utopia11FlowBrowser10metaObjectEv
libutopia2_qt.so:_ZNK6Utopia11FlowBrowser10separationEv
libutopia2_qt.so:_ZNK6Utopia11FlowBrowser12currentModelEv
libutopia2_qt.so:_ZNK6Utopia11FlowBrowser22defaultBackgroundColorEv
libutopia2_qt.so:_ZNK6Utopia11FlowBrowser6offsetEv
libutopia2_qt.so:_ZNK6Utopia11FlowBrowser7isEmptyEv
libutopia2_qt.so:_ZNK6Utopia11RaiseAction10metaObjectEv
libutopia2_qt.so:_ZNK6Utopia11SlideLayout10metaObjectEv
libutopia2_qt.so:_ZNK6Utopia11SlideLayout11minimumSizeEv
libutopia2_qt.so:_ZNK6Utopia11SlideLayout13slideDurationEv
libutopia2_qt.so:_ZNK6Utopia11SlideLayout14updateIntervalEv
libutopia2_qt.so:_ZNK6Utopia11SlideLayout3topEv
libutopia2_qt.so:_ZNK6Utopia11SlideLayout5countEv
libutopia2_qt.so:_ZNK6Utopia11SlideLayout6itemAtEi
libutopia2_qt.so:_ZNK6Utopia11SlideLayout8sizeHintEv
libutopia2_qt.so:_ZNK6Utopia12BubbleDialog10metaObjectEv
libutopia2_qt.so:_ZNK6Utopia12BubbleWidget10metaObjectEv
libutopia2_qt.so:_ZNK6Utopia12Configurator4formEv
libutopia2_qt.so:_ZNK6Utopia12Configurator4iconEv
libutopia2_qt.so:_ZNK6Utopia12Configurator5titleEv
libutopia2_qt.so:_ZNK6Utopia12Configurator6fieldsEv
libutopia2_qt.so:_ZNK6Utopia12ImageDropper10fullPixmapEv
libutopia2_qt.so:_ZNK6Utopia12ImageDropper10metaObjectEv
libutopia2_qt.so:_ZNK6Utopia12ImagePreview10metaObjectEv
libutopia2_qt.so:_ZNK6Utopia12ImagePreview14heightForWidthEi
libutopia2_qt.so:_ZNK6Utopia12ImagePreview8sizeHintEv
libutopia2_qt.so:_ZNK6Utopia12MessageLabel10metaObjectEv
libutopia2_qt.so:_ZNK6Utopia12SpeechBubble10metaObjectEv
libutopia2_qt.so:_ZNK6Utopia12SplashScreen10metaObjectEv
libutopia2_qt.so:_ZNK6Utopia12UpdateWidget10metaObjectEv
libutopia2_qt.so:_ZNK6Utopia13HeadUpDisplay10metaObjectEv
libutopia2_qt.so:_ZNK6Utopia13ShimmerWidget10metaObjectEv
libutopia2_qt.so:_ZNK6Utopia13SlaveSplitter10metaObjectEv
libutopia2_qt.so:_ZNK6Utopia13ThoughtBubble10metaObjectEv
libutopia2_qt.so:_ZNK6Utopia14AbstractWidget10metaObjectEv
libutopia2_qt.so:_ZNK6Utopia14AbstractWindow10metaObjectEv
libutopia2_qt.so:_ZNK6Utopia14AbstractWindow4typeEv
libutopia2_qt.so:_ZNK6Utopia14AbstractWindow5modelEv
libutopia2_qt.so:_ZNK6Utopia14EmbeddedWidget10metaObjectEv
libutopia2_qt.so:_ZNK6Utopia14HoldableButton10metaObjectEv
libutopia2_qt.so:_ZNK6Utopia14HoldableButton12holdIntervalEv
libutopia2_qt.so:_ZNK6Utopia14ProgressDialog10metaObjectEv
libutopia2_qt.so:_ZNK6Utopia14ProgressDialog15minimumDurationEv
libutopia2_qt.so:_ZNK6Utopia14ProgressDialog4textEv
libutopia2_qt.so:_ZNK6Utopia14ProgressDialog8progressEv
libutopia2_qt.so:_ZNK6Utopia15FileFixerDialog10metaObjectEv
libutopia2_qt.so:_ZNK6Utopia15FileFixerDialog14exportFileNameEv
libutopia2_qt.so:_ZNK6Utopia15FileFixerDialog3ctxEv
libutopia2_qt.so:_ZNK6Utopia15FlowBrowserItem10metaObjectEv
libutopia2_qt.so:_ZNK6Utopia15PreferencesPane10isModifiedEv
libutopia2_qt.so:_ZNK6Utopia15PreferencesPane10metaObjectEv
libutopia2_qt.so:_ZNK6Utopia15PreferencesPane12errorMessageEv
libutopia2_qt.so:_ZNK6Utopia15PreferencesPane6weightEv
libutopia2_qt.so:_ZNK6Utopia15PreferencesPane7isValidEv
libutopia2_qt.so:_ZNK6Utopia16FileFormatDialog10metaObjectEv
libutopia2_qt.so:_ZNK6Utopia16FileFormatDialog18selectedFileFormatEv
libutopia2_qt.so:_ZNK6Utopia16FlowBrowserModel10metaObjectEv
libutopia2_qt.so:_ZNK6Utopia16FlowBrowserModel15backgroundColorEv
libutopia2_qt.so:_ZNK6Utopia16FlowBrowserModel2atEi
libutopia2_qt.so:_ZNK6Utopia16FlowBrowserModel4lastEv
libutopia2_qt.so:_ZNK6Utopia16FlowBrowserModel5countEv
libutopia2_qt.so:_ZNK6Utopia16FlowBrowserModel5firstEv
libutopia2_qt.so:_ZNK6Utopia16FlowBrowserModel5titleEv
libutopia2_qt.so:_ZNK6Utopia16FlowBrowserModel6centerEv
libutopia2_qt.so:_ZNK6Utopia16FlowBrowserModel7currentEv
libutopia2_qt.so:_ZNK6Utopia16FlowBrowserModel7isEmptyEv
libutopia2_qt.so:_ZNK6Utopia16FlowBrowserModel8positionEv
libutopia2_qt.so:_ZNK6Utopia16MenuProxyPrivate10metaObjectEv
libutopia2_qt.so:_ZNK6Utopia16ThumbnailChooser10handleSizeEv
libutopia2_qt.so:_ZNK6Utopia16ThumbnailChooser10metaObjectEv
libutopia2_qt.so:_ZNK6Utopia16ThumbnailChooser11sourceImageEv
libutopia2_qt.so:_ZNK6Utopia16ThumbnailChooser12controlColorEv
libutopia2_qt.so:_ZNK6Utopia16ThumbnailChooser13smoothUpdatesEv
libutopia2_qt.so:_ZNK6Utopia16ThumbnailChooser13thumbnailSizeEv
libutopia2_qt.so:_ZNK6Utopia16ThumbnailChooser15backgroundColorEv
libutopia2_qt.so:_ZNK6Utopia16ThumbnailChooser15minimumSizeHintEv
libutopia2_qt.so:_ZNK6Utopia16ThumbnailChooser16isValidThumbnailEv
libutopia2_qt.so:_ZNK6Utopia16ThumbnailChooser4zoomEv
libutopia2_qt.so:_ZNK6Utopia16ThumbnailChooser8cropRectEv
libutopia2_qt.so:_ZNK6Utopia16ThumbnailChooser9clampZoomEv
libutopia2_qt.so:_ZNK6Utopia16ThumbnailChooser9thumbnailEb
libutopia2_qt.so:_ZNK6Utopia16ThumbnailPreview10metaObjectEv
libutopia2_qt.so:_ZNK6Utopia16UIManagerPrivate10metaObjectEv
libutopia2_qt.so:_ZNK6Utopia17PreferencesDialog10metaObjectEv
libutopia2_qt.so:_ZNK6Utopia18ActionProxyPrivate10metaObjectEv
libutopia2_qt.so:_ZNK6Utopia18FlowBrowserPrivate10metaObjectEv
libutopia2_qt.so:_ZNK6Utopia18ImageFormatManager10metaObjectEv
libutopia2_qt.so:_ZNK6Utopia18ImageFormatManager13exportQualityEv
libutopia2_qt.so:_ZNK6Utopia18ImageFormatManager18formatForExtensionERK7QStringNS0_8FileModeE
libutopia2_qt.so:_ZNK6Utopia18ImageFormatManager19defaultExportFormatEv
libutopia2_qt.so:_ZNK6Utopia18ImageFormatManager19extensionsForFormatERK7QString
libutopia2_qt.so:_ZNK6Utopia18ImageFormatManager22supportedExportFormatsEv
libutopia2_qt.so:_ZNK6Utopia18ParserContextModel10metaObjectEv
libutopia2_qt.so:_ZNK6Utopia18ParserContextModel4dataERK11QModelIndexi
libutopia2_qt.so:_ZNK6Utopia18ParserContextModel8rowCountERK11QModelIndex
libutopia2_qt.so:_ZNK6Utopia18SlideLayoutPrivate10metaObjectEv
libutopia2_qt.so:_ZNK6Utopia19ImageCroppingDialog10metaObjectEv
libutopia2_qt.so:_ZNK6Utopia19SlaveSplitterHandle10metaObjectEv
libutopia2_qt.so:_ZNK6Utopia21AbstractWindowPrivate10metaObjectEv
libutopia2_qt.so:_ZNK6Utopia21AbstractWindowPrivate6windowEv
libutopia2_qt.so:_ZNK6Utopia23FlowBrowserModelPrivate10metaObjectEv
libutopia2_qt.so:_ZNK6Utopia24PreferencesDialogPrivate10metaObjectEv
libutopia2_qt.so:_ZNK6Utopia24PreferencesDialogPrivate11currentPaneEv
libutopia2_qt.so:_ZNK6Utopia26FlowBrowserItemUpdateQueue10metaObjectEv
libutopia2_qt.so:_ZNK6Utopia7Spinner10metaObjectEv
libutopia2_qt.so:_ZNK6Utopia7Spinner5colorEv
libutopia2_qt.so:_ZNK6Utopia7Spinner6activeEv
libutopia2_qt.so:_ZNK6Utopia7Spinner6pausedEv
libutopia2_qt.so:_ZNK6Utopia7Spinner8autoHideEv
libutopia2_qt.so:_ZNK6Utopia7Spinner8progressEv
libutopia2_qt.so:_ZNK6Utopia7Tearout10metaObjectEv
libutopia2_qt.so:_ZNK6Utopia7WebPage10metaObjectEv
libutopia2_qt.so:_ZNK6Utopia7WebPage15userAgentForUrlERK4QUrl
libutopia2_qt.so:_ZNK6Utopia7WebView10metaObjectEv
libutopia2_qt.so:_ZNK6Utopia8TextEdit10metaObjectEv
libutopia2_qt.so:_ZNK6Utopia9SlaveMenu6masterEv
libutopia2_qt.so:_ZNK6Utopia9UIManager10menuRecentEP7QWidget
libutopia2_qt.so:_ZNK6Utopia9UIManager10menuWindowEP7QWidget
libutopia2_qt.so:_ZNK6Utopia9UIManager10metaObjectEv
libutopia2_qt.so:_ZNK6Utopia9UIManager16menuWindowMasterEv
libutopia2_qt.so:_ZNK6Utopia9UIManager17actionPreferencesEv
libutopia2_qt.so:_ZNK6Utopia9UIManager21menuWindowActionGroupEv
libutopia2_qt.so:_ZNK6Utopia9UIManager7windowsEv
libutopia2_qt.so:_ZNK6Utopia9UIManager8menuHelpEP7QWidget
libutopia2_qt.so:_ZThn16_N6Utopia11ElidedLabelD0Ev
libutopia2_qt.so:_ZThn16_N6Utopia11ElidedLabelD1Ev
libutopia2_qt.so:_ZThn16_N6Utopia11FlowBrowserD0Ev
libutopia2_qt.so:_ZThn16_N6Utopia11FlowBrowserD1Ev
libutopia2_qt.so:_ZThn16_N6Utopia11SlideLayout11setGeometryERK5QRect
libutopia2_qt.so:_ZThn16_N6Utopia12ImagePreviewD0Ev
libutopia2_qt.so:_ZThn16_N6Utopia12ImagePreviewD1Ev
libutopia2_qt.so:_ZThn16_N6Utopia12UpdateWidgetD0Ev
libutopia2_qt.so:_ZThn16_N6Utopia12UpdateWidgetD1Ev
libutopia2_qt.so:_ZThn16_N6Utopia13HeadUpDisplayD0Ev
libutopia2_qt.so:_ZThn16_N6Utopia13HeadUpDisplayD1Ev
libutopia2_qt.so:_ZThn16_N6Utopia14AbstractWindowD0Ev
libutopia2_qt.so:_ZThn16_N6Utopia14AbstractWindowD1Ev
libutopia2_qt.so:_ZThn16_N6Utopia14EmbeddedWidgetD0Ev
libutopia2_qt.so:_ZThn16_N6Utopia14EmbeddedWidgetD1Ev
libutopia2_qt.so:_ZThn16_N6Utopia14ProgressDialogD0Ev
libutopia2_qt.so:_ZThn16_N6Utopia14ProgressDialogD1Ev
libutopia2_qt.so:_ZThn16_N6Utopia15FileFixerDialogD0Ev
libutopia2_qt.so:_ZThn16_N6Utopia15FileFixerDialogD1Ev
libutopia2_qt.so:_ZThn16_N6Utopia15PreferencesPaneD0Ev
libutopia2_qt.so:_ZThn16_N6Utopia15PreferencesPaneD1Ev
libutopia2_qt.so:_ZThn16_N6Utopia16FileFormatDialogD0Ev
libutopia2_qt.so:_ZThn16_N6Utopia16FileFormatDialogD1Ev
libutopia2_qt.so:_ZThn16_N6Utopia16ThumbnailChooserD0Ev
libutopia2_qt.so:_ZThn16_N6Utopia16ThumbnailChooserD1Ev
libutopia2_qt.so:_ZThn16_N6Utopia16ThumbnailPreviewD0Ev
libutopia2_qt.so:_ZThn16_N6Utopia16ThumbnailPreviewD1Ev
libutopia2_qt.so:_ZThn16_N6Utopia17PreferencesDialogD0Ev
libutopia2_qt.so:_ZThn16_N6Utopia17PreferencesDialogD1Ev
libutopia2_qt.so:_ZThn16_N6Utopia19SlaveSplitterHandleD0Ev
libutopia2_qt.so:_ZThn16_N6Utopia19SlaveSplitterHandleD1Ev
libutopia2_qt.so:_ZThn16_N6Utopia7WebViewD0Ev
libutopia2_qt.so:_ZThn16_N6Utopia7WebViewD1Ev
libutopia2_qt.so:_ZThn16_N6Utopia9SlaveMenuD0Ev
libutopia2_qt.so:_ZThn16_N6Utopia9SlaveMenuD1Ev
libutopia2_qt.so:_ZThn16_NK6Utopia11SlideLayout11minimumSizeEv
libutopia2_qt.so:_ZThn16_NK6Utopia11SlideLayout8sizeHintEv
